

Microchip Technology PIC LITE Macro Assembler V1.45 build -152302408 
                                                                                               Sun May 13 20:38:16 2018

Microchip Technology Omniscient Code Generator v1.45 (Free mode) build 201711160504
     1                           	processor	16F18857
     2                           	opt	pw 120
     3                           	opt	lm
     4                           	psect	stringtext1,global,class=STRCODE,delta=2
     5                           	psect	nvBANK0,global,class=BANK0,space=1,delta=1
     6                           	psect	stringtext2,global,class=STRCODE,delta=2
     7                           	psect	stringtext3,global,class=STRCODE,delta=2
     8                           	psect	stringtext4,global,class=STRCODE,delta=2
     9                           	psect	cinit,global,class=CODE,merge=1,delta=2
    10                           	psect	bssBANK0,global,class=BANK0,space=1,delta=1
    11                           	psect	cstackBANK1,global,class=BANK1,space=1,delta=1
    12                           	psect	cstackCOMMON,global,class=COMMON,space=1,delta=1
    13                           	psect	cstackBANK0,global,class=BANK0,space=1,delta=1
    14                           	psect	maintext,global,class=CODE,merge=1,split=1,delta=2
    15                           	psect	text1,local,class=CODE,merge=1,delta=2
    16                           	psect	text2,local,class=CODE,merge=1,delta=2
    17                           	psect	text3,local,class=CODE,merge=1,delta=2
    18                           	psect	text4,local,class=CODE,merge=1,delta=2,group=2
    19                           	psect	text5,local,class=CODE,merge=1,delta=2,group=2
    20                           	psect	text6,local,class=CODE,merge=1,delta=2,group=2
    21                           	psect	text7,local,class=CODE,merge=1,delta=2,group=2
    22                           	psect	text8,local,class=CODE,merge=1,delta=2,group=2
    23                           	psect	text9,local,class=CODE,merge=1,delta=2,group=2
    24                           	psect	text10,local,class=CODE,merge=1,delta=2,group=2
    25                           	psect	text11,local,class=CODE,merge=1,delta=2,group=2
    26                           	psect	text12,local,class=CODE,merge=1,delta=2
    27                           	psect	text13,local,class=CODE,merge=1,delta=2
    28                           	psect	text14,local,class=CODE,merge=1,delta=2
    29                           	psect	text15,local,class=CODE,merge=1,delta=2
    30                           	psect	text16,local,class=CODE,merge=1,delta=2
    31                           	psect	text17,local,class=CODE,merge=1,delta=2
    32                           	psect	text18,local,class=CODE,merge=1,delta=2
    33                           	psect	text19,local,class=CODE,merge=1,delta=2
    34                           	psect	text20,local,class=CODE,merge=1,delta=2
    35                           	psect	text21,local,class=CODE,merge=1,delta=2
    36                           	psect	intentry,global,class=CODE,delta=2
    37                           	psect	text23,local,class=CODE,merge=1,delta=2
    38                           	psect	text24,local,class=CODE,merge=1,delta=2
    39                           	psect	text25,local,class=CODE,merge=1,delta=2
    40                           	psect	text26,local,class=CODE,merge=1,delta=2
    41                           	psect	text27,local,class=CODE,merge=1,delta=2
    42                           	psect	text28,local,class=CODE,merge=1,delta=2
    43                           	psect	text29,local,class=CODE,merge=1,delta=2
    44                           	psect	text30,local,class=CODE,merge=1,delta=2
    45                           	psect	text31,local,class=CODE,merge=1,delta=2
    46                           	psect	text32,local,class=CODE,merge=1,delta=2,group=2
    47                           	psect	text33,local,class=CODE,merge=1,delta=2
    48                           	dabs	1,0x7E,2
    49  0000                     
    50                           ; Version 1.45
    51                           ; Generated 16/11/2017 GMT
    52                           ; 
    53                           ; Copyright © 2017, Microchip Technology Inc. and its subsidiaries ("Microchip")
    54                           ; All rights reserved.
    55                           ; 
    56                           ; This software is developed by Microchip Technology Inc. and its subsidiaries ("Microch
      +                          ip").
    57                           ; 
    58                           ; Redistribution and use in source and binary forms, with or without modification, are
    59                           ; permitted provided that the following conditions are met:
    60                           ; 
    61                           ;     1. Redistributions of source code must retain the above copyright notice, this lis
      +                          t of
    62                           ;        conditions and the following disclaimer.
    63                           ; 
    64                           ;     2. Redistributions in binary form must reproduce the above copyright notice, this 
      +                          list
    65                           ;        of conditions and the following disclaimer in the documentation and/or other
    66                           ;        materials provided with the distribution.
    67                           ; 
    68                           ;     3. Microchip's name may not be used to endorse or promote products derived from th
      +                          is
    69                           ;        software without specific prior written permission.
    70                           ; 
    71                           ; THIS SOFTWARE IS PROVIDED BY MICROCHIP "AS IS" AND ANY EXPRESS OR IMPLIED WARRANTIES,
    72                           ; INCLUDING, BUT NOT LIMITED TO, THE IMPLIED WARRANTIES OF MERCHANTABILITY AND FITNESS F
      +                          OR
    73                           ; PURPOSE ARE DISCLAIMED.  IN NO EVENT SHALL MICROCHIP BE LIABLE FOR ANY DIRECT, INDIREC
      +                          T,
    74                           ; INCIDENTAL, SPECIAL, EXEMPLARY, OR CONSEQUENTIAL DAMAGES (INCLUDING BUT NOT LIMITED TO
    75                           ; PROCUREMENT OF SUBSTITUTE GOODS OR SERVICES; LOSS OF USE, DATA OR PROFITS; OR BUSINESS
    76                           ; INTERRUPTION) HOWSOEVER CAUSED AND ON ANY THEORY OF LIABILITY, WHETHER IN CONTRACT, ST
      +                          RICT
    77                           ; LIABILITY, OR TORT (INCLUDING NEGLIGENCE OR OTHERWISE) ARISING IN ANY WAY OUT OF THE U
      +                          SE OF
    78                           ; THIS SOFTWARE, EVEN IF ADVISED OF THE POSSIBILITY OF SUCH DAMAGE.
    79                           ; 
    80                           ; 
    81                           ; Code-generator required, PIC16F18857 Definitions
    82                           ; 
    83                           ; SFR Addresses
    84  0000                     	;# 
    85  0001                     	;# 
    86  0002                     	;# 
    87  0003                     	;# 
    88  0004                     	;# 
    89  0005                     	;# 
    90  0006                     	;# 
    91  0007                     	;# 
    92  0008                     	;# 
    93  0009                     	;# 
    94  000A                     	;# 
    95  000B                     	;# 
    96  000C                     	;# 
    97  000D                     	;# 
    98  000E                     	;# 
    99  0010                     	;# 
   100  0011                     	;# 
   101  0012                     	;# 
   102  0013                     	;# 
   103  0016                     	;# 
   104  0017                     	;# 
   105  0018                     	;# 
   106  001C                     	;# 
   107  001C                     	;# 
   108  001D                     	;# 
   109  001D                     	;# 
   110  001E                     	;# 
   111  001F                     	;# 
   112  008C                     	;# 
   113  008C                     	;# 
   114  008D                     	;# 
   115  008E                     	;# 
   116  008E                     	;# 
   117  008F                     	;# 
   118  0090                     	;# 
   119  0090                     	;# 
   120  0091                     	;# 
   121  0093                     	;# 
   122  0094                     	;# 
   123  0095                     	;# 
   124  0096                     	;# 
   125  0097                     	;# 
   126  0098                     	;# 
   127  0099                     	;# 
   128  009A                     	;# 
   129  009B                     	;# 
   130  009C                     	;# 
   131  009D                     	;# 
   132  009E                     	;# 
   133  010C                     	;# 
   134  010D                     	;# 
   135  010E                     	;# 
   136  010E                     	;# 
   137  010F                     	;# 
   138  0110                     	;# 
   139  0110                     	;# 
   140  0111                     	;# 
   141  0112                     	;# 
   142  0112                     	;# 
   143  0113                     	;# 
   144  0114                     	;# 
   145  0114                     	;# 
   146  0115                     	;# 
   147  0116                     	;# 
   148  0116                     	;# 
   149  0117                     	;# 
   150  0119                     	;# 
   151  0119                     	;# 
   152  0119                     	;# 
   153  011A                     	;# 
   154  011A                     	;# 
   155  011A                     	;# 
   156  011B                     	;# 
   157  011B                     	;# 
   158  011B                     	;# 
   159  011B                     	;# 
   160  011B                     	;# 
   161  011C                     	;# 
   162  011C                     	;# 
   163  011C                     	;# 
   164  011D                     	;# 
   165  011D                     	;# 
   166  011D                     	;# 
   167  011E                     	;# 
   168  011E                     	;# 
   169  011E                     	;# 
   170  011F                     	;# 
   171  011F                     	;# 
   172  011F                     	;# 
   173  011F                     	;# 
   174  011F                     	;# 
   175  018C                     	;# 
   176  018D                     	;# 
   177  018E                     	;# 
   178  018F                     	;# 
   179  0190                     	;# 
   180  0191                     	;# 
   181  0192                     	;# 
   182  0196                     	;# 
   183  0197                     	;# 
   184  0198                     	;# 
   185  0199                     	;# 
   186  019A                     	;# 
   187  019B                     	;# 
   188  019C                     	;# 
   189  020C                     	;# 
   190  020C                     	;# 
   191  020D                     	;# 
   192  020E                     	;# 
   193  020F                     	;# 
   194  020F                     	;# 
   195  0210                     	;# 
   196  0210                     	;# 
   197  0211                     	;# 
   198  0211                     	;# 
   199  0212                     	;# 
   200  0212                     	;# 
   201  0213                     	;# 
   202  0214                     	;# 
   203  0215                     	;# 
   204  0215                     	;# 
   205  0216                     	;# 
   206  0216                     	;# 
   207  0217                     	;# 
   208  0217                     	;# 
   209  0218                     	;# 
   210  0218                     	;# 
   211  0219                     	;# 
   212  021A                     	;# 
   213  021B                     	;# 
   214  021B                     	;# 
   215  021C                     	;# 
   216  021C                     	;# 
   217  021D                     	;# 
   218  021D                     	;# 
   219  021E                     	;# 
   220  021F                     	;# 
   221  028C                     	;# 
   222  028C                     	;# 
   223  028D                     	;# 
   224  028D                     	;# 
   225  028E                     	;# 
   226  028F                     	;# 
   227  0290                     	;# 
   228  0290                     	;# 
   229  0291                     	;# 
   230  0292                     	;# 
   231  0292                     	;# 
   232  0293                     	;# 
   233  0293                     	;# 
   234  0294                     	;# 
   235  0295                     	;# 
   236  0296                     	;# 
   237  0296                     	;# 
   238  0297                     	;# 
   239  0298                     	;# 
   240  0298                     	;# 
   241  0299                     	;# 
   242  0299                     	;# 
   243  029A                     	;# 
   244  029B                     	;# 
   245  029C                     	;# 
   246  029C                     	;# 
   247  029D                     	;# 
   248  030C                     	;# 
   249  030C                     	;# 
   250  030D                     	;# 
   251  030E                     	;# 
   252  030F                     	;# 
   253  0310                     	;# 
   254  0310                     	;# 
   255  0311                     	;# 
   256  0312                     	;# 
   257  0313                     	;# 
   258  0314                     	;# 
   259  0314                     	;# 
   260  0315                     	;# 
   261  0316                     	;# 
   262  0317                     	;# 
   263  0318                     	;# 
   264  0318                     	;# 
   265  0319                     	;# 
   266  031A                     	;# 
   267  031B                     	;# 
   268  031C                     	;# 
   269  031C                     	;# 
   270  031D                     	;# 
   271  031E                     	;# 
   272  031F                     	;# 
   273  038C                     	;# 
   274  038D                     	;# 
   275  038E                     	;# 
   276  0390                     	;# 
   277  0391                     	;# 
   278  0392                     	;# 
   279  040C                     	;# 
   280  040D                     	;# 
   281  040E                     	;# 
   282  040F                     	;# 
   283  0410                     	;# 
   284  0411                     	;# 
   285  0416                     	;# 
   286  0416                     	;# 
   287  0417                     	;# 
   288  0418                     	;# 
   289  0418                     	;# 
   290  0419                     	;# 
   291  041A                     	;# 
   292  041A                     	;# 
   293  041B                     	;# 
   294  041C                     	;# 
   295  041C                     	;# 
   296  041D                     	;# 
   297  041E                     	;# 
   298  041F                     	;# 
   299  048C                     	;# 
   300  048C                     	;# 
   301  048D                     	;# 
   302  048E                     	;# 
   303  048F                     	;# 
   304  048F                     	;# 
   305  0490                     	;# 
   306  0491                     	;# 
   307  0492                     	;# 
   308  0492                     	;# 
   309  0493                     	;# 
   310  0494                     	;# 
   311  0495                     	;# 
   312  0495                     	;# 
   313  0496                     	;# 
   314  0497                     	;# 
   315  0498                     	;# 
   316  0499                     	;# 
   317  049A                     	;# 
   318  049B                     	;# 
   319  049C                     	;# 
   320  049D                     	;# 
   321  050C                     	;# 
   322  050C                     	;# 
   323  050D                     	;# 
   324  050E                     	;# 
   325  050F                     	;# 
   326  050F                     	;# 
   327  0510                     	;# 
   328  0511                     	;# 
   329  0512                     	;# 
   330  0512                     	;# 
   331  0513                     	;# 
   332  0514                     	;# 
   333  0515                     	;# 
   334  0515                     	;# 
   335  0516                     	;# 
   336  0517                     	;# 
   337  0518                     	;# 
   338  0519                     	;# 
   339  051A                     	;# 
   340  051B                     	;# 
   341  051C                     	;# 
   342  051D                     	;# 
   343  058C                     	;# 
   344  058C                     	;# 
   345  058D                     	;# 
   346  058E                     	;# 
   347  058F                     	;# 
   348  058F                     	;# 
   349  0590                     	;# 
   350  0591                     	;# 
   351  0592                     	;# 
   352  0593                     	;# 
   353  060C                     	;# 
   354  060D                     	;# 
   355  060E                     	;# 
   356  060F                     	;# 
   357  0610                     	;# 
   358  0611                     	;# 
   359  0612                     	;# 
   360  0613                     	;# 
   361  0614                     	;# 
   362  0616                     	;# 
   363  0617                     	;# 
   364  0618                     	;# 
   365  0619                     	;# 
   366  061A                     	;# 
   367  061B                     	;# 
   368  061C                     	;# 
   369  061D                     	;# 
   370  061E                     	;# 
   371  068C                     	;# 
   372  068D                     	;# 
   373  068E                     	;# 
   374  068F                     	;# 
   375  0690                     	;# 
   376  0691                     	;# 
   377  0692                     	;# 
   378  0693                     	;# 
   379  0694                     	;# 
   380  070C                     	;# 
   381  070D                     	;# 
   382  070E                     	;# 
   383  070F                     	;# 
   384  0710                     	;# 
   385  0711                     	;# 
   386  0712                     	;# 
   387  0713                     	;# 
   388  0714                     	;# 
   389  0716                     	;# 
   390  0717                     	;# 
   391  0718                     	;# 
   392  0719                     	;# 
   393  071A                     	;# 
   394  071B                     	;# 
   395  071C                     	;# 
   396  071D                     	;# 
   397  071E                     	;# 
   398  0796                     	;# 
   399  0797                     	;# 
   400  0798                     	;# 
   401  0799                     	;# 
   402  079A                     	;# 
   403  079B                     	;# 
   404  080C                     	;# 
   405  080D                     	;# 
   406  080E                     	;# 
   407  080F                     	;# 
   408  0810                     	;# 
   409  0811                     	;# 
   410  0812                     	;# 
   411  0813                     	;# 
   412  0814                     	;# 
   413  081A                     	;# 
   414  081B                     	;# 
   415  081C                     	;# 
   416  081D                     	;# 
   417  081E                     	;# 
   418  081F                     	;# 
   419  088C                     	;# 
   420  088D                     	;# 
   421  088E                     	;# 
   422  088F                     	;# 
   423  0890                     	;# 
   424  0891                     	;# 
   425  0892                     	;# 
   426  0893                     	;# 
   427  0895                     	;# 
   428  0896                     	;# 
   429  0897                     	;# 
   430  0898                     	;# 
   431  0899                     	;# 
   432  089A                     	;# 
   433  089B                     	;# 
   434  090C                     	;# 
   435  090E                     	;# 
   436  090F                     	;# 
   437  091F                     	;# 
   438  098F                     	;# 
   439  098F                     	;# 
   440  0990                     	;# 
   441  0991                     	;# 
   442  0992                     	;# 
   443  0993                     	;# 
   444  0994                     	;# 
   445  0995                     	;# 
   446  0996                     	;# 
   447  0997                     	;# 
   448  1E0F                     	;# 
   449  1E10                     	;# 
   450  1E11                     	;# 
   451  1E12                     	;# 
   452  1E13                     	;# 
   453  1E14                     	;# 
   454  1E15                     	;# 
   455  1E16                     	;# 
   456  1E17                     	;# 
   457  1E18                     	;# 
   458  1E19                     	;# 
   459  1E1A                     	;# 
   460  1E1B                     	;# 
   461  1E1C                     	;# 
   462  1E1D                     	;# 
   463  1E1E                     	;# 
   464  1E1F                     	;# 
   465  1E20                     	;# 
   466  1E21                     	;# 
   467  1E22                     	;# 
   468  1E23                     	;# 
   469  1E24                     	;# 
   470  1E25                     	;# 
   471  1E26                     	;# 
   472  1E27                     	;# 
   473  1E28                     	;# 
   474  1E29                     	;# 
   475  1E2A                     	;# 
   476  1E2B                     	;# 
   477  1E2C                     	;# 
   478  1E2D                     	;# 
   479  1E2E                     	;# 
   480  1E2F                     	;# 
   481  1E30                     	;# 
   482  1E31                     	;# 
   483  1E32                     	;# 
   484  1E33                     	;# 
   485  1E34                     	;# 
   486  1E35                     	;# 
   487  1E36                     	;# 
   488  1E37                     	;# 
   489  1E8F                     	;# 
   490  1E90                     	;# 
   491  1E91                     	;# 
   492  1E92                     	;# 
   493  1E93                     	;# 
   494  1E94                     	;# 
   495  1E95                     	;# 
   496  1E96                     	;# 
   497  1E97                     	;# 
   498  1E9C                     	;# 
   499  1E9D                     	;# 
   500  1E9E                     	;# 
   501  1EA1                     	;# 
   502  1EA2                     	;# 
   503  1EA3                     	;# 
   504  1EA4                     	;# 
   505  1EA5                     	;# 
   506  1EA9                     	;# 
   507  1EAA                     	;# 
   508  1EAB                     	;# 
   509  1EAC                     	;# 
   510  1EB1                     	;# 
   511  1EB2                     	;# 
   512  1EB3                     	;# 
   513  1EB8                     	;# 
   514  1EB9                     	;# 
   515  1EBA                     	;# 
   516  1EBB                     	;# 
   517  1EBC                     	;# 
   518  1EBD                     	;# 
   519  1EBE                     	;# 
   520  1EC3                     	;# 
   521  1EC5                     	;# 
   522  1EC6                     	;# 
   523  1EC7                     	;# 
   524  1EC8                     	;# 
   525  1EC9                     	;# 
   526  1ECA                     	;# 
   527  1ECB                     	;# 
   528  1ECC                     	;# 
   529  1F10                     	;# 
   530  1F11                     	;# 
   531  1F12                     	;# 
   532  1F13                     	;# 
   533  1F14                     	;# 
   534  1F15                     	;# 
   535  1F16                     	;# 
   536  1F17                     	;# 
   537  1F18                     	;# 
   538  1F19                     	;# 
   539  1F1A                     	;# 
   540  1F1B                     	;# 
   541  1F1C                     	;# 
   542  1F1D                     	;# 
   543  1F1E                     	;# 
   544  1F1F                     	;# 
   545  1F20                     	;# 
   546  1F21                     	;# 
   547  1F22                     	;# 
   548  1F23                     	;# 
   549  1F24                     	;# 
   550  1F25                     	;# 
   551  1F26                     	;# 
   552  1F27                     	;# 
   553  1F38                     	;# 
   554  1F39                     	;# 
   555  1F3A                     	;# 
   556  1F3B                     	;# 
   557  1F3C                     	;# 
   558  1F3D                     	;# 
   559  1F3E                     	;# 
   560  1F3F                     	;# 
   561  1F40                     	;# 
   562  1F41                     	;# 
   563  1F43                     	;# 
   564  1F44                     	;# 
   565  1F45                     	;# 
   566  1F46                     	;# 
   567  1F47                     	;# 
   568  1F48                     	;# 
   569  1F49                     	;# 
   570  1F4A                     	;# 
   571  1F4B                     	;# 
   572  1F4C                     	;# 
   573  1F4E                     	;# 
   574  1F4F                     	;# 
   575  1F50                     	;# 
   576  1F51                     	;# 
   577  1F52                     	;# 
   578  1F53                     	;# 
   579  1F54                     	;# 
   580  1F55                     	;# 
   581  1F56                     	;# 
   582  1F57                     	;# 
   583  1F65                     	;# 
   584  1F68                     	;# 
   585  1F69                     	;# 
   586  1F6A                     	;# 
   587  1F6B                     	;# 
   588  1FE4                     	;# 
   589  1FE5                     	;# 
   590  1FE6                     	;# 
   591  1FE7                     	;# 
   592  1FE8                     	;# 
   593  1FE9                     	;# 
   594  1FEA                     	;# 
   595  1FEB                     	;# 
   596  1FED                     	;# 
   597  1FEE                     	;# 
   598  1FEF                     	;# 
   599  0000                     	;# 
   600  0001                     	;# 
   601  0002                     	;# 
   602  0003                     	;# 
   603  0004                     	;# 
   604  0005                     	;# 
   605  0006                     	;# 
   606  0007                     	;# 
   607  0008                     	;# 
   608  0009                     	;# 
   609  000A                     	;# 
   610  000B                     	;# 
   611  000C                     	;# 
   612  000D                     	;# 
   613  000E                     	;# 
   614  0010                     	;# 
   615  0011                     	;# 
   616  0012                     	;# 
   617  0013                     	;# 
   618  0016                     	;# 
   619  0017                     	;# 
   620  0018                     	;# 
   621  001C                     	;# 
   622  001C                     	;# 
   623  001D                     	;# 
   624  001D                     	;# 
   625  001E                     	;# 
   626  001F                     	;# 
   627  008C                     	;# 
   628  008C                     	;# 
   629  008D                     	;# 
   630  008E                     	;# 
   631  008E                     	;# 
   632  008F                     	;# 
   633  0090                     	;# 
   634  0090                     	;# 
   635  0091                     	;# 
   636  0093                     	;# 
   637  0094                     	;# 
   638  0095                     	;# 
   639  0096                     	;# 
   640  0097                     	;# 
   641  0098                     	;# 
   642  0099                     	;# 
   643  009A                     	;# 
   644  009B                     	;# 
   645  009C                     	;# 
   646  009D                     	;# 
   647  009E                     	;# 
   648  010C                     	;# 
   649  010D                     	;# 
   650  010E                     	;# 
   651  010E                     	;# 
   652  010F                     	;# 
   653  0110                     	;# 
   654  0110                     	;# 
   655  0111                     	;# 
   656  0112                     	;# 
   657  0112                     	;# 
   658  0113                     	;# 
   659  0114                     	;# 
   660  0114                     	;# 
   661  0115                     	;# 
   662  0116                     	;# 
   663  0116                     	;# 
   664  0117                     	;# 
   665  0119                     	;# 
   666  0119                     	;# 
   667  0119                     	;# 
   668  011A                     	;# 
   669  011A                     	;# 
   670  011A                     	;# 
   671  011B                     	;# 
   672  011B                     	;# 
   673  011B                     	;# 
   674  011B                     	;# 
   675  011B                     	;# 
   676  011C                     	;# 
   677  011C                     	;# 
   678  011C                     	;# 
   679  011D                     	;# 
   680  011D                     	;# 
   681  011D                     	;# 
   682  011E                     	;# 
   683  011E                     	;# 
   684  011E                     	;# 
   685  011F                     	;# 
   686  011F                     	;# 
   687  011F                     	;# 
   688  011F                     	;# 
   689  011F                     	;# 
   690  018C                     	;# 
   691  018D                     	;# 
   692  018E                     	;# 
   693  018F                     	;# 
   694  0190                     	;# 
   695  0191                     	;# 
   696  0192                     	;# 
   697  0196                     	;# 
   698  0197                     	;# 
   699  0198                     	;# 
   700  0199                     	;# 
   701  019A                     	;# 
   702  019B                     	;# 
   703  019C                     	;# 
   704  020C                     	;# 
   705  020C                     	;# 
   706  020D                     	;# 
   707  020E                     	;# 
   708  020F                     	;# 
   709  020F                     	;# 
   710  0210                     	;# 
   711  0210                     	;# 
   712  0211                     	;# 
   713  0211                     	;# 
   714  0212                     	;# 
   715  0212                     	;# 
   716  0213                     	;# 
   717  0214                     	;# 
   718  0215                     	;# 
   719  0215                     	;# 
   720  0216                     	;# 
   721  0216                     	;# 
   722  0217                     	;# 
   723  0217                     	;# 
   724  0218                     	;# 
   725  0218                     	;# 
   726  0219                     	;# 
   727  021A                     	;# 
   728  021B                     	;# 
   729  021B                     	;# 
   730  021C                     	;# 
   731  021C                     	;# 
   732  021D                     	;# 
   733  021D                     	;# 
   734  021E                     	;# 
   735  021F                     	;# 
   736  028C                     	;# 
   737  028C                     	;# 
   738  028D                     	;# 
   739  028D                     	;# 
   740  028E                     	;# 
   741  028F                     	;# 
   742  0290                     	;# 
   743  0290                     	;# 
   744  0291                     	;# 
   745  0292                     	;# 
   746  0292                     	;# 
   747  0293                     	;# 
   748  0293                     	;# 
   749  0294                     	;# 
   750  0295                     	;# 
   751  0296                     	;# 
   752  0296                     	;# 
   753  0297                     	;# 
   754  0298                     	;# 
   755  0298                     	;# 
   756  0299                     	;# 
   757  0299                     	;# 
   758  029A                     	;# 
   759  029B                     	;# 
   760  029C                     	;# 
   761  029C                     	;# 
   762  029D                     	;# 
   763  030C                     	;# 
   764  030C                     	;# 
   765  030D                     	;# 
   766  030E                     	;# 
   767  030F                     	;# 
   768  0310                     	;# 
   769  0310                     	;# 
   770  0311                     	;# 
   771  0312                     	;# 
   772  0313                     	;# 
   773  0314                     	;# 
   774  0314                     	;# 
   775  0315                     	;# 
   776  0316                     	;# 
   777  0317                     	;# 
   778  0318                     	;# 
   779  0318                     	;# 
   780  0319                     	;# 
   781  031A                     	;# 
   782  031B                     	;# 
   783  031C                     	;# 
   784  031C                     	;# 
   785  031D                     	;# 
   786  031E                     	;# 
   787  031F                     	;# 
   788  038C                     	;# 
   789  038D                     	;# 
   790  038E                     	;# 
   791  0390                     	;# 
   792  0391                     	;# 
   793  0392                     	;# 
   794  040C                     	;# 
   795  040D                     	;# 
   796  040E                     	;# 
   797  040F                     	;# 
   798  0410                     	;# 
   799  0411                     	;# 
   800  0416                     	;# 
   801  0416                     	;# 
   802  0417                     	;# 
   803  0418                     	;# 
   804  0418                     	;# 
   805  0419                     	;# 
   806  041A                     	;# 
   807  041A                     	;# 
   808  041B                     	;# 
   809  041C                     	;# 
   810  041C                     	;# 
   811  041D                     	;# 
   812  041E                     	;# 
   813  041F                     	;# 
   814  048C                     	;# 
   815  048C                     	;# 
   816  048D                     	;# 
   817  048E                     	;# 
   818  048F                     	;# 
   819  048F                     	;# 
   820  0490                     	;# 
   821  0491                     	;# 
   822  0492                     	;# 
   823  0492                     	;# 
   824  0493                     	;# 
   825  0494                     	;# 
   826  0495                     	;# 
   827  0495                     	;# 
   828  0496                     	;# 
   829  0497                     	;# 
   830  0498                     	;# 
   831  0499                     	;# 
   832  049A                     	;# 
   833  049B                     	;# 
   834  049C                     	;# 
   835  049D                     	;# 
   836  050C                     	;# 
   837  050C                     	;# 
   838  050D                     	;# 
   839  050E                     	;# 
   840  050F                     	;# 
   841  050F                     	;# 
   842  0510                     	;# 
   843  0511                     	;# 
   844  0512                     	;# 
   845  0512                     	;# 
   846  0513                     	;# 
   847  0514                     	;# 
   848  0515                     	;# 
   849  0515                     	;# 
   850  0516                     	;# 
   851  0517                     	;# 
   852  0518                     	;# 
   853  0519                     	;# 
   854  051A                     	;# 
   855  051B                     	;# 
   856  051C                     	;# 
   857  051D                     	;# 
   858  058C                     	;# 
   859  058C                     	;# 
   860  058D                     	;# 
   861  058E                     	;# 
   862  058F                     	;# 
   863  058F                     	;# 
   864  0590                     	;# 
   865  0591                     	;# 
   866  0592                     	;# 
   867  0593                     	;# 
   868  060C                     	;# 
   869  060D                     	;# 
   870  060E                     	;# 
   871  060F                     	;# 
   872  0610                     	;# 
   873  0611                     	;# 
   874  0612                     	;# 
   875  0613                     	;# 
   876  0614                     	;# 
   877  0616                     	;# 
   878  0617                     	;# 
   879  0618                     	;# 
   880  0619                     	;# 
   881  061A                     	;# 
   882  061B                     	;# 
   883  061C                     	;# 
   884  061D                     	;# 
   885  061E                     	;# 
   886  068C                     	;# 
   887  068D                     	;# 
   888  068E                     	;# 
   889  068F                     	;# 
   890  0690                     	;# 
   891  0691                     	;# 
   892  0692                     	;# 
   893  0693                     	;# 
   894  0694                     	;# 
   895  070C                     	;# 
   896  070D                     	;# 
   897  070E                     	;# 
   898  070F                     	;# 
   899  0710                     	;# 
   900  0711                     	;# 
   901  0712                     	;# 
   902  0713                     	;# 
   903  0714                     	;# 
   904  0716                     	;# 
   905  0717                     	;# 
   906  0718                     	;# 
   907  0719                     	;# 
   908  071A                     	;# 
   909  071B                     	;# 
   910  071C                     	;# 
   911  071D                     	;# 
   912  071E                     	;# 
   913  0796                     	;# 
   914  0797                     	;# 
   915  0798                     	;# 
   916  0799                     	;# 
   917  079A                     	;# 
   918  079B                     	;# 
   919  080C                     	;# 
   920  080D                     	;# 
   921  080E                     	;# 
   922  080F                     	;# 
   923  0810                     	;# 
   924  0811                     	;# 
   925  0812                     	;# 
   926  0813                     	;# 
   927  0814                     	;# 
   928  081A                     	;# 
   929  081B                     	;# 
   930  081C                     	;# 
   931  081D                     	;# 
   932  081E                     	;# 
   933  081F                     	;# 
   934  088C                     	;# 
   935  088D                     	;# 
   936  088E                     	;# 
   937  088F                     	;# 
   938  0890                     	;# 
   939  0891                     	;# 
   940  0892                     	;# 
   941  0893                     	;# 
   942  0895                     	;# 
   943  0896                     	;# 
   944  0897                     	;# 
   945  0898                     	;# 
   946  0899                     	;# 
   947  089A                     	;# 
   948  089B                     	;# 
   949  090C                     	;# 
   950  090E                     	;# 
   951  090F                     	;# 
   952  091F                     	;# 
   953  098F                     	;# 
   954  098F                     	;# 
   955  0990                     	;# 
   956  0991                     	;# 
   957  0992                     	;# 
   958  0993                     	;# 
   959  0994                     	;# 
   960  0995                     	;# 
   961  0996                     	;# 
   962  0997                     	;# 
   963  1E0F                     	;# 
   964  1E10                     	;# 
   965  1E11                     	;# 
   966  1E12                     	;# 
   967  1E13                     	;# 
   968  1E14                     	;# 
   969  1E15                     	;# 
   970  1E16                     	;# 
   971  1E17                     	;# 
   972  1E18                     	;# 
   973  1E19                     	;# 
   974  1E1A                     	;# 
   975  1E1B                     	;# 
   976  1E1C                     	;# 
   977  1E1D                     	;# 
   978  1E1E                     	;# 
   979  1E1F                     	;# 
   980  1E20                     	;# 
   981  1E21                     	;# 
   982  1E22                     	;# 
   983  1E23                     	;# 
   984  1E24                     	;# 
   985  1E25                     	;# 
   986  1E26                     	;# 
   987  1E27                     	;# 
   988  1E28                     	;# 
   989  1E29                     	;# 
   990  1E2A                     	;# 
   991  1E2B                     	;# 
   992  1E2C                     	;# 
   993  1E2D                     	;# 
   994  1E2E                     	;# 
   995  1E2F                     	;# 
   996  1E30                     	;# 
   997  1E31                     	;# 
   998  1E32                     	;# 
   999  1E33                     	;# 
  1000  1E34                     	;# 
  1001  1E35                     	;# 
  1002  1E36                     	;# 
  1003  1E37                     	;# 
  1004  1E8F                     	;# 
  1005  1E90                     	;# 
  1006  1E91                     	;# 
  1007  1E92                     	;# 
  1008  1E93                     	;# 
  1009  1E94                     	;# 
  1010  1E95                     	;# 
  1011  1E96                     	;# 
  1012  1E97                     	;# 
  1013  1E9C                     	;# 
  1014  1E9D                     	;# 
  1015  1E9E                     	;# 
  1016  1EA1                     	;# 
  1017  1EA2                     	;# 
  1018  1EA3                     	;# 
  1019  1EA4                     	;# 
  1020  1EA5                     	;# 
  1021  1EA9                     	;# 
  1022  1EAA                     	;# 
  1023  1EAB                     	;# 
  1024  1EAC                     	;# 
  1025  1EB1                     	;# 
  1026  1EB2                     	;# 
  1027  1EB3                     	;# 
  1028  1EB8                     	;# 
  1029  1EB9                     	;# 
  1030  1EBA                     	;# 
  1031  1EBB                     	;# 
  1032  1EBC                     	;# 
  1033  1EBD                     	;# 
  1034  1EBE                     	;# 
  1035  1EC3                     	;# 
  1036  1EC5                     	;# 
  1037  1EC6                     	;# 
  1038  1EC7                     	;# 
  1039  1EC8                     	;# 
  1040  1EC9                     	;# 
  1041  1ECA                     	;# 
  1042  1ECB                     	;# 
  1043  1ECC                     	;# 
  1044  1F10                     	;# 
  1045  1F11                     	;# 
  1046  1F12                     	;# 
  1047  1F13                     	;# 
  1048  1F14                     	;# 
  1049  1F15                     	;# 
  1050  1F16                     	;# 
  1051  1F17                     	;# 
  1052  1F18                     	;# 
  1053  1F19                     	;# 
  1054  1F1A                     	;# 
  1055  1F1B                     	;# 
  1056  1F1C                     	;# 
  1057  1F1D                     	;# 
  1058  1F1E                     	;# 
  1059  1F1F                     	;# 
  1060  1F20                     	;# 
  1061  1F21                     	;# 
  1062  1F22                     	;# 
  1063  1F23                     	;# 
  1064  1F24                     	;# 
  1065  1F25                     	;# 
  1066  1F26                     	;# 
  1067  1F27                     	;# 
  1068  1F38                     	;# 
  1069  1F39                     	;# 
  1070  1F3A                     	;# 
  1071  1F3B                     	;# 
  1072  1F3C                     	;# 
  1073  1F3D                     	;# 
  1074  1F3E                     	;# 
  1075  1F3F                     	;# 
  1076  1F40                     	;# 
  1077  1F41                     	;# 
  1078  1F43                     	;# 
  1079  1F44                     	;# 
  1080  1F45                     	;# 
  1081  1F46                     	;# 
  1082  1F47                     	;# 
  1083  1F48                     	;# 
  1084  1F49                     	;# 
  1085  1F4A                     	;# 
  1086  1F4B                     	;# 
  1087  1F4C                     	;# 
  1088  1F4E                     	;# 
  1089  1F4F                     	;# 
  1090  1F50                     	;# 
  1091  1F51                     	;# 
  1092  1F52                     	;# 
  1093  1F53                     	;# 
  1094  1F54                     	;# 
  1095  1F55                     	;# 
  1096  1F56                     	;# 
  1097  1F57                     	;# 
  1098  1F65                     	;# 
  1099  1F68                     	;# 
  1100  1F69                     	;# 
  1101  1F6A                     	;# 
  1102  1F6B                     	;# 
  1103  1FE4                     	;# 
  1104  1FE5                     	;# 
  1105  1FE6                     	;# 
  1106  1FE7                     	;# 
  1107  1FE8                     	;# 
  1108  1FE9                     	;# 
  1109  1FEA                     	;# 
  1110  1FEB                     	;# 
  1111  1FED                     	;# 
  1112  1FEE                     	;# 
  1113  1FEF                     	;# 
  1114  0000                     	;# 
  1115  0001                     	;# 
  1116  0002                     	;# 
  1117  0003                     	;# 
  1118  0004                     	;# 
  1119  0005                     	;# 
  1120  0006                     	;# 
  1121  0007                     	;# 
  1122  0008                     	;# 
  1123  0009                     	;# 
  1124  000A                     	;# 
  1125  000B                     	;# 
  1126  000C                     	;# 
  1127  000D                     	;# 
  1128  000E                     	;# 
  1129  0010                     	;# 
  1130  0011                     	;# 
  1131  0012                     	;# 
  1132  0013                     	;# 
  1133  0016                     	;# 
  1134  0017                     	;# 
  1135  0018                     	;# 
  1136  001C                     	;# 
  1137  001C                     	;# 
  1138  001D                     	;# 
  1139  001D                     	;# 
  1140  001E                     	;# 
  1141  001F                     	;# 
  1142  008C                     	;# 
  1143  008C                     	;# 
  1144  008D                     	;# 
  1145  008E                     	;# 
  1146  008E                     	;# 
  1147  008F                     	;# 
  1148  0090                     	;# 
  1149  0090                     	;# 
  1150  0091                     	;# 
  1151  0093                     	;# 
  1152  0094                     	;# 
  1153  0095                     	;# 
  1154  0096                     	;# 
  1155  0097                     	;# 
  1156  0098                     	;# 
  1157  0099                     	;# 
  1158  009A                     	;# 
  1159  009B                     	;# 
  1160  009C                     	;# 
  1161  009D                     	;# 
  1162  009E                     	;# 
  1163  010C                     	;# 
  1164  010D                     	;# 
  1165  010E                     	;# 
  1166  010E                     	;# 
  1167  010F                     	;# 
  1168  0110                     	;# 
  1169  0110                     	;# 
  1170  0111                     	;# 
  1171  0112                     	;# 
  1172  0112                     	;# 
  1173  0113                     	;# 
  1174  0114                     	;# 
  1175  0114                     	;# 
  1176  0115                     	;# 
  1177  0116                     	;# 
  1178  0116                     	;# 
  1179  0117                     	;# 
  1180  0119                     	;# 
  1181  0119                     	;# 
  1182  0119                     	;# 
  1183  011A                     	;# 
  1184  011A                     	;# 
  1185  011A                     	;# 
  1186  011B                     	;# 
  1187  011B                     	;# 
  1188  011B                     	;# 
  1189  011B                     	;# 
  1190  011B                     	;# 
  1191  011C                     	;# 
  1192  011C                     	;# 
  1193  011C                     	;# 
  1194  011D                     	;# 
  1195  011D                     	;# 
  1196  011D                     	;# 
  1197  011E                     	;# 
  1198  011E                     	;# 
  1199  011E                     	;# 
  1200  011F                     	;# 
  1201  011F                     	;# 
  1202  011F                     	;# 
  1203  011F                     	;# 
  1204  011F                     	;# 
  1205  018C                     	;# 
  1206  018D                     	;# 
  1207  018E                     	;# 
  1208  018F                     	;# 
  1209  0190                     	;# 
  1210  0191                     	;# 
  1211  0192                     	;# 
  1212  0196                     	;# 
  1213  0197                     	;# 
  1214  0198                     	;# 
  1215  0199                     	;# 
  1216  019A                     	;# 
  1217  019B                     	;# 
  1218  019C                     	;# 
  1219  020C                     	;# 
  1220  020C                     	;# 
  1221  020D                     	;# 
  1222  020E                     	;# 
  1223  020F                     	;# 
  1224  020F                     	;# 
  1225  0210                     	;# 
  1226  0210                     	;# 
  1227  0211                     	;# 
  1228  0211                     	;# 
  1229  0212                     	;# 
  1230  0212                     	;# 
  1231  0213                     	;# 
  1232  0214                     	;# 
  1233  0215                     	;# 
  1234  0215                     	;# 
  1235  0216                     	;# 
  1236  0216                     	;# 
  1237  0217                     	;# 
  1238  0217                     	;# 
  1239  0218                     	;# 
  1240  0218                     	;# 
  1241  0219                     	;# 
  1242  021A                     	;# 
  1243  021B                     	;# 
  1244  021B                     	;# 
  1245  021C                     	;# 
  1246  021C                     	;# 
  1247  021D                     	;# 
  1248  021D                     	;# 
  1249  021E                     	;# 
  1250  021F                     	;# 
  1251  028C                     	;# 
  1252  028C                     	;# 
  1253  028D                     	;# 
  1254  028D                     	;# 
  1255  028E                     	;# 
  1256  028F                     	;# 
  1257  0290                     	;# 
  1258  0290                     	;# 
  1259  0291                     	;# 
  1260  0292                     	;# 
  1261  0292                     	;# 
  1262  0293                     	;# 
  1263  0293                     	;# 
  1264  0294                     	;# 
  1265  0295                     	;# 
  1266  0296                     	;# 
  1267  0296                     	;# 
  1268  0297                     	;# 
  1269  0298                     	;# 
  1270  0298                     	;# 
  1271  0299                     	;# 
  1272  0299                     	;# 
  1273  029A                     	;# 
  1274  029B                     	;# 
  1275  029C                     	;# 
  1276  029C                     	;# 
  1277  029D                     	;# 
  1278  030C                     	;# 
  1279  030C                     	;# 
  1280  030D                     	;# 
  1281  030E                     	;# 
  1282  030F                     	;# 
  1283  0310                     	;# 
  1284  0310                     	;# 
  1285  0311                     	;# 
  1286  0312                     	;# 
  1287  0313                     	;# 
  1288  0314                     	;# 
  1289  0314                     	;# 
  1290  0315                     	;# 
  1291  0316                     	;# 
  1292  0317                     	;# 
  1293  0318                     	;# 
  1294  0318                     	;# 
  1295  0319                     	;# 
  1296  031A                     	;# 
  1297  031B                     	;# 
  1298  031C                     	;# 
  1299  031C                     	;# 
  1300  031D                     	;# 
  1301  031E                     	;# 
  1302  031F                     	;# 
  1303  038C                     	;# 
  1304  038D                     	;# 
  1305  038E                     	;# 
  1306  0390                     	;# 
  1307  0391                     	;# 
  1308  0392                     	;# 
  1309  040C                     	;# 
  1310  040D                     	;# 
  1311  040E                     	;# 
  1312  040F                     	;# 
  1313  0410                     	;# 
  1314  0411                     	;# 
  1315  0416                     	;# 
  1316  0416                     	;# 
  1317  0417                     	;# 
  1318  0418                     	;# 
  1319  0418                     	;# 
  1320  0419                     	;# 
  1321  041A                     	;# 
  1322  041A                     	;# 
  1323  041B                     	;# 
  1324  041C                     	;# 
  1325  041C                     	;# 
  1326  041D                     	;# 
  1327  041E                     	;# 
  1328  041F                     	;# 
  1329  048C                     	;# 
  1330  048C                     	;# 
  1331  048D                     	;# 
  1332  048E                     	;# 
  1333  048F                     	;# 
  1334  048F                     	;# 
  1335  0490                     	;# 
  1336  0491                     	;# 
  1337  0492                     	;# 
  1338  0492                     	;# 
  1339  0493                     	;# 
  1340  0494                     	;# 
  1341  0495                     	;# 
  1342  0495                     	;# 
  1343  0496                     	;# 
  1344  0497                     	;# 
  1345  0498                     	;# 
  1346  0499                     	;# 
  1347  049A                     	;# 
  1348  049B                     	;# 
  1349  049C                     	;# 
  1350  049D                     	;# 
  1351  050C                     	;# 
  1352  050C                     	;# 
  1353  050D                     	;# 
  1354  050E                     	;# 
  1355  050F                     	;# 
  1356  050F                     	;# 
  1357  0510                     	;# 
  1358  0511                     	;# 
  1359  0512                     	;# 
  1360  0512                     	;# 
  1361  0513                     	;# 
  1362  0514                     	;# 
  1363  0515                     	;# 
  1364  0515                     	;# 
  1365  0516                     	;# 
  1366  0517                     	;# 
  1367  0518                     	;# 
  1368  0519                     	;# 
  1369  051A                     	;# 
  1370  051B                     	;# 
  1371  051C                     	;# 
  1372  051D                     	;# 
  1373  058C                     	;# 
  1374  058C                     	;# 
  1375  058D                     	;# 
  1376  058E                     	;# 
  1377  058F                     	;# 
  1378  058F                     	;# 
  1379  0590                     	;# 
  1380  0591                     	;# 
  1381  0592                     	;# 
  1382  0593                     	;# 
  1383  060C                     	;# 
  1384  060D                     	;# 
  1385  060E                     	;# 
  1386  060F                     	;# 
  1387  0610                     	;# 
  1388  0611                     	;# 
  1389  0612                     	;# 
  1390  0613                     	;# 
  1391  0614                     	;# 
  1392  0616                     	;# 
  1393  0617                     	;# 
  1394  0618                     	;# 
  1395  0619                     	;# 
  1396  061A                     	;# 
  1397  061B                     	;# 
  1398  061C                     	;# 
  1399  061D                     	;# 
  1400  061E                     	;# 
  1401  068C                     	;# 
  1402  068D                     	;# 
  1403  068E                     	;# 
  1404  068F                     	;# 
  1405  0690                     	;# 
  1406  0691                     	;# 
  1407  0692                     	;# 
  1408  0693                     	;# 
  1409  0694                     	;# 
  1410  070C                     	;# 
  1411  070D                     	;# 
  1412  070E                     	;# 
  1413  070F                     	;# 
  1414  0710                     	;# 
  1415  0711                     	;# 
  1416  0712                     	;# 
  1417  0713                     	;# 
  1418  0714                     	;# 
  1419  0716                     	;# 
  1420  0717                     	;# 
  1421  0718                     	;# 
  1422  0719                     	;# 
  1423  071A                     	;# 
  1424  071B                     	;# 
  1425  071C                     	;# 
  1426  071D                     	;# 
  1427  071E                     	;# 
  1428  0796                     	;# 
  1429  0797                     	;# 
  1430  0798                     	;# 
  1431  0799                     	;# 
  1432  079A                     	;# 
  1433  079B                     	;# 
  1434  080C                     	;# 
  1435  080D                     	;# 
  1436  080E                     	;# 
  1437  080F                     	;# 
  1438  0810                     	;# 
  1439  0811                     	;# 
  1440  0812                     	;# 
  1441  0813                     	;# 
  1442  0814                     	;# 
  1443  081A                     	;# 
  1444  081B                     	;# 
  1445  081C                     	;# 
  1446  081D                     	;# 
  1447  081E                     	;# 
  1448  081F                     	;# 
  1449  088C                     	;# 
  1450  088D                     	;# 
  1451  088E                     	;# 
  1452  088F                     	;# 
  1453  0890                     	;# 
  1454  0891                     	;# 
  1455  0892                     	;# 
  1456  0893                     	;# 
  1457  0895                     	;# 
  1458  0896                     	;# 
  1459  0897                     	;# 
  1460  0898                     	;# 
  1461  0899                     	;# 
  1462  089A                     	;# 
  1463  089B                     	;# 
  1464  090C                     	;# 
  1465  090E                     	;# 
  1466  090F                     	;# 
  1467  091F                     	;# 
  1468  098F                     	;# 
  1469  098F                     	;# 
  1470  0990                     	;# 
  1471  0991                     	;# 
  1472  0992                     	;# 
  1473  0993                     	;# 
  1474  0994                     	;# 
  1475  0995                     	;# 
  1476  0996                     	;# 
  1477  0997                     	;# 
  1478  1E0F                     	;# 
  1479  1E10                     	;# 
  1480  1E11                     	;# 
  1481  1E12                     	;# 
  1482  1E13                     	;# 
  1483  1E14                     	;# 
  1484  1E15                     	;# 
  1485  1E16                     	;# 
  1486  1E17                     	;# 
  1487  1E18                     	;# 
  1488  1E19                     	;# 
  1489  1E1A                     	;# 
  1490  1E1B                     	;# 
  1491  1E1C                     	;# 
  1492  1E1D                     	;# 
  1493  1E1E                     	;# 
  1494  1E1F                     	;# 
  1495  1E20                     	;# 
  1496  1E21                     	;# 
  1497  1E22                     	;# 
  1498  1E23                     	;# 
  1499  1E24                     	;# 
  1500  1E25                     	;# 
  1501  1E26                     	;# 
  1502  1E27                     	;# 
  1503  1E28                     	;# 
  1504  1E29                     	;# 
  1505  1E2A                     	;# 
  1506  1E2B                     	;# 
  1507  1E2C                     	;# 
  1508  1E2D                     	;# 
  1509  1E2E                     	;# 
  1510  1E2F                     	;# 
  1511  1E30                     	;# 
  1512  1E31                     	;# 
  1513  1E32                     	;# 
  1514  1E33                     	;# 
  1515  1E34                     	;# 
  1516  1E35                     	;# 
  1517  1E36                     	;# 
  1518  1E37                     	;# 
  1519  1E8F                     	;# 
  1520  1E90                     	;# 
  1521  1E91                     	;# 
  1522  1E92                     	;# 
  1523  1E93                     	;# 
  1524  1E94                     	;# 
  1525  1E95                     	;# 
  1526  1E96                     	;# 
  1527  1E97                     	;# 
  1528  1E9C                     	;# 
  1529  1E9D                     	;# 
  1530  1E9E                     	;# 
  1531  1EA1                     	;# 
  1532  1EA2                     	;# 
  1533  1EA3                     	;# 
  1534  1EA4                     	;# 
  1535  1EA5                     	;# 
  1536  1EA9                     	;# 
  1537  1EAA                     	;# 
  1538  1EAB                     	;# 
  1539  1EAC                     	;# 
  1540  1EB1                     	;# 
  1541  1EB2                     	;# 
  1542  1EB3                     	;# 
  1543  1EB8                     	;# 
  1544  1EB9                     	;# 
  1545  1EBA                     	;# 
  1546  1EBB                     	;# 
  1547  1EBC                     	;# 
  1548  1EBD                     	;# 
  1549  1EBE                     	;# 
  1550  1EC3                     	;# 
  1551  1EC5                     	;# 
  1552  1EC6                     	;# 
  1553  1EC7                     	;# 
  1554  1EC8                     	;# 
  1555  1EC9                     	;# 
  1556  1ECA                     	;# 
  1557  1ECB                     	;# 
  1558  1ECC                     	;# 
  1559  1F10                     	;# 
  1560  1F11                     	;# 
  1561  1F12                     	;# 
  1562  1F13                     	;# 
  1563  1F14                     	;# 
  1564  1F15                     	;# 
  1565  1F16                     	;# 
  1566  1F17                     	;# 
  1567  1F18                     	;# 
  1568  1F19                     	;# 
  1569  1F1A                     	;# 
  1570  1F1B                     	;# 
  1571  1F1C                     	;# 
  1572  1F1D                     	;# 
  1573  1F1E                     	;# 
  1574  1F1F                     	;# 
  1575  1F20                     	;# 
  1576  1F21                     	;# 
  1577  1F22                     	;# 
  1578  1F23                     	;# 
  1579  1F24                     	;# 
  1580  1F25                     	;# 
  1581  1F26                     	;# 
  1582  1F27                     	;# 
  1583  1F38                     	;# 
  1584  1F39                     	;# 
  1585  1F3A                     	;# 
  1586  1F3B                     	;# 
  1587  1F3C                     	;# 
  1588  1F3D                     	;# 
  1589  1F3E                     	;# 
  1590  1F3F                     	;# 
  1591  1F40                     	;# 
  1592  1F41                     	;# 
  1593  1F43                     	;# 
  1594  1F44                     	;# 
  1595  1F45                     	;# 
  1596  1F46                     	;# 
  1597  1F47                     	;# 
  1598  1F48                     	;# 
  1599  1F49                     	;# 
  1600  1F4A                     	;# 
  1601  1F4B                     	;# 
  1602  1F4C                     	;# 
  1603  1F4E                     	;# 
  1604  1F4F                     	;# 
  1605  1F50                     	;# 
  1606  1F51                     	;# 
  1607  1F52                     	;# 
  1608  1F53                     	;# 
  1609  1F54                     	;# 
  1610  1F55                     	;# 
  1611  1F56                     	;# 
  1612  1F57                     	;# 
  1613  1F65                     	;# 
  1614  1F68                     	;# 
  1615  1F69                     	;# 
  1616  1F6A                     	;# 
  1617  1F6B                     	;# 
  1618  1FE4                     	;# 
  1619  1FE5                     	;# 
  1620  1FE6                     	;# 
  1621  1FE7                     	;# 
  1622  1FE8                     	;# 
  1623  1FE9                     	;# 
  1624  1FEA                     	;# 
  1625  1FEB                     	;# 
  1626  1FED                     	;# 
  1627  1FEE                     	;# 
  1628  1FEF                     	;# 
  1629  0000                     	;# 
  1630  0001                     	;# 
  1631  0002                     	;# 
  1632  0003                     	;# 
  1633  0004                     	;# 
  1634  0005                     	;# 
  1635  0006                     	;# 
  1636  0007                     	;# 
  1637  0008                     	;# 
  1638  0009                     	;# 
  1639  000A                     	;# 
  1640  000B                     	;# 
  1641  000C                     	;# 
  1642  000D                     	;# 
  1643  000E                     	;# 
  1644  0010                     	;# 
  1645  0011                     	;# 
  1646  0012                     	;# 
  1647  0013                     	;# 
  1648  0016                     	;# 
  1649  0017                     	;# 
  1650  0018                     	;# 
  1651  001C                     	;# 
  1652  001C                     	;# 
  1653  001D                     	;# 
  1654  001D                     	;# 
  1655  001E                     	;# 
  1656  001F                     	;# 
  1657  008C                     	;# 
  1658  008C                     	;# 
  1659  008D                     	;# 
  1660  008E                     	;# 
  1661  008E                     	;# 
  1662  008F                     	;# 
  1663  0090                     	;# 
  1664  0090                     	;# 
  1665  0091                     	;# 
  1666  0093                     	;# 
  1667  0094                     	;# 
  1668  0095                     	;# 
  1669  0096                     	;# 
  1670  0097                     	;# 
  1671  0098                     	;# 
  1672  0099                     	;# 
  1673  009A                     	;# 
  1674  009B                     	;# 
  1675  009C                     	;# 
  1676  009D                     	;# 
  1677  009E                     	;# 
  1678  010C                     	;# 
  1679  010D                     	;# 
  1680  010E                     	;# 
  1681  010E                     	;# 
  1682  010F                     	;# 
  1683  0110                     	;# 
  1684  0110                     	;# 
  1685  0111                     	;# 
  1686  0112                     	;# 
  1687  0112                     	;# 
  1688  0113                     	;# 
  1689  0114                     	;# 
  1690  0114                     	;# 
  1691  0115                     	;# 
  1692  0116                     	;# 
  1693  0116                     	;# 
  1694  0117                     	;# 
  1695  0119                     	;# 
  1696  0119                     	;# 
  1697  0119                     	;# 
  1698  011A                     	;# 
  1699  011A                     	;# 
  1700  011A                     	;# 
  1701  011B                     	;# 
  1702  011B                     	;# 
  1703  011B                     	;# 
  1704  011B                     	;# 
  1705  011B                     	;# 
  1706  011C                     	;# 
  1707  011C                     	;# 
  1708  011C                     	;# 
  1709  011D                     	;# 
  1710  011D                     	;# 
  1711  011D                     	;# 
  1712  011E                     	;# 
  1713  011E                     	;# 
  1714  011E                     	;# 
  1715  011F                     	;# 
  1716  011F                     	;# 
  1717  011F                     	;# 
  1718  011F                     	;# 
  1719  011F                     	;# 
  1720  018C                     	;# 
  1721  018D                     	;# 
  1722  018E                     	;# 
  1723  018F                     	;# 
  1724  0190                     	;# 
  1725  0191                     	;# 
  1726  0192                     	;# 
  1727  0196                     	;# 
  1728  0197                     	;# 
  1729  0198                     	;# 
  1730  0199                     	;# 
  1731  019A                     	;# 
  1732  019B                     	;# 
  1733  019C                     	;# 
  1734  020C                     	;# 
  1735  020C                     	;# 
  1736  020D                     	;# 
  1737  020E                     	;# 
  1738  020F                     	;# 
  1739  020F                     	;# 
  1740  0210                     	;# 
  1741  0210                     	;# 
  1742  0211                     	;# 
  1743  0211                     	;# 
  1744  0212                     	;# 
  1745  0212                     	;# 
  1746  0213                     	;# 
  1747  0214                     	;# 
  1748  0215                     	;# 
  1749  0215                     	;# 
  1750  0216                     	;# 
  1751  0216                     	;# 
  1752  0217                     	;# 
  1753  0217                     	;# 
  1754  0218                     	;# 
  1755  0218                     	;# 
  1756  0219                     	;# 
  1757  021A                     	;# 
  1758  021B                     	;# 
  1759  021B                     	;# 
  1760  021C                     	;# 
  1761  021C                     	;# 
  1762  021D                     	;# 
  1763  021D                     	;# 
  1764  021E                     	;# 
  1765  021F                     	;# 
  1766  028C                     	;# 
  1767  028C                     	;# 
  1768  028D                     	;# 
  1769  028D                     	;# 
  1770  028E                     	;# 
  1771  028F                     	;# 
  1772  0290                     	;# 
  1773  0290                     	;# 
  1774  0291                     	;# 
  1775  0292                     	;# 
  1776  0292                     	;# 
  1777  0293                     	;# 
  1778  0293                     	;# 
  1779  0294                     	;# 
  1780  0295                     	;# 
  1781  0296                     	;# 
  1782  0296                     	;# 
  1783  0297                     	;# 
  1784  0298                     	;# 
  1785  0298                     	;# 
  1786  0299                     	;# 
  1787  0299                     	;# 
  1788  029A                     	;# 
  1789  029B                     	;# 
  1790  029C                     	;# 
  1791  029C                     	;# 
  1792  029D                     	;# 
  1793  030C                     	;# 
  1794  030C                     	;# 
  1795  030D                     	;# 
  1796  030E                     	;# 
  1797  030F                     	;# 
  1798  0310                     	;# 
  1799  0310                     	;# 
  1800  0311                     	;# 
  1801  0312                     	;# 
  1802  0313                     	;# 
  1803  0314                     	;# 
  1804  0314                     	;# 
  1805  0315                     	;# 
  1806  0316                     	;# 
  1807  0317                     	;# 
  1808  0318                     	;# 
  1809  0318                     	;# 
  1810  0319                     	;# 
  1811  031A                     	;# 
  1812  031B                     	;# 
  1813  031C                     	;# 
  1814  031C                     	;# 
  1815  031D                     	;# 
  1816  031E                     	;# 
  1817  031F                     	;# 
  1818  038C                     	;# 
  1819  038D                     	;# 
  1820  038E                     	;# 
  1821  0390                     	;# 
  1822  0391                     	;# 
  1823  0392                     	;# 
  1824  040C                     	;# 
  1825  040D                     	;# 
  1826  040E                     	;# 
  1827  040F                     	;# 
  1828  0410                     	;# 
  1829  0411                     	;# 
  1830  0416                     	;# 
  1831  0416                     	;# 
  1832  0417                     	;# 
  1833  0418                     	;# 
  1834  0418                     	;# 
  1835  0419                     	;# 
  1836  041A                     	;# 
  1837  041A                     	;# 
  1838  041B                     	;# 
  1839  041C                     	;# 
  1840  041C                     	;# 
  1841  041D                     	;# 
  1842  041E                     	;# 
  1843  041F                     	;# 
  1844  048C                     	;# 
  1845  048C                     	;# 
  1846  048D                     	;# 
  1847  048E                     	;# 
  1848  048F                     	;# 
  1849  048F                     	;# 
  1850  0490                     	;# 
  1851  0491                     	;# 
  1852  0492                     	;# 
  1853  0492                     	;# 
  1854  0493                     	;# 
  1855  0494                     	;# 
  1856  0495                     	;# 
  1857  0495                     	;# 
  1858  0496                     	;# 
  1859  0497                     	;# 
  1860  0498                     	;# 
  1861  0499                     	;# 
  1862  049A                     	;# 
  1863  049B                     	;# 
  1864  049C                     	;# 
  1865  049D                     	;# 
  1866  050C                     	;# 
  1867  050C                     	;# 
  1868  050D                     	;# 
  1869  050E                     	;# 
  1870  050F                     	;# 
  1871  050F                     	;# 
  1872  0510                     	;# 
  1873  0511                     	;# 
  1874  0512                     	;# 
  1875  0512                     	;# 
  1876  0513                     	;# 
  1877  0514                     	;# 
  1878  0515                     	;# 
  1879  0515                     	;# 
  1880  0516                     	;# 
  1881  0517                     	;# 
  1882  0518                     	;# 
  1883  0519                     	;# 
  1884  051A                     	;# 
  1885  051B                     	;# 
  1886  051C                     	;# 
  1887  051D                     	;# 
  1888  058C                     	;# 
  1889  058C                     	;# 
  1890  058D                     	;# 
  1891  058E                     	;# 
  1892  058F                     	;# 
  1893  058F                     	;# 
  1894  0590                     	;# 
  1895  0591                     	;# 
  1896  0592                     	;# 
  1897  0593                     	;# 
  1898  060C                     	;# 
  1899  060D                     	;# 
  1900  060E                     	;# 
  1901  060F                     	;# 
  1902  0610                     	;# 
  1903  0611                     	;# 
  1904  0612                     	;# 
  1905  0613                     	;# 
  1906  0614                     	;# 
  1907  0616                     	;# 
  1908  0617                     	;# 
  1909  0618                     	;# 
  1910  0619                     	;# 
  1911  061A                     	;# 
  1912  061B                     	;# 
  1913  061C                     	;# 
  1914  061D                     	;# 
  1915  061E                     	;# 
  1916  068C                     	;# 
  1917  068D                     	;# 
  1918  068E                     	;# 
  1919  068F                     	;# 
  1920  0690                     	;# 
  1921  0691                     	;# 
  1922  0692                     	;# 
  1923  0693                     	;# 
  1924  0694                     	;# 
  1925  070C                     	;# 
  1926  070D                     	;# 
  1927  070E                     	;# 
  1928  070F                     	;# 
  1929  0710                     	;# 
  1930  0711                     	;# 
  1931  0712                     	;# 
  1932  0713                     	;# 
  1933  0714                     	;# 
  1934  0716                     	;# 
  1935  0717                     	;# 
  1936  0718                     	;# 
  1937  0719                     	;# 
  1938  071A                     	;# 
  1939  071B                     	;# 
  1940  071C                     	;# 
  1941  071D                     	;# 
  1942  071E                     	;# 
  1943  0796                     	;# 
  1944  0797                     	;# 
  1945  0798                     	;# 
  1946  0799                     	;# 
  1947  079A                     	;# 
  1948  079B                     	;# 
  1949  080C                     	;# 
  1950  080D                     	;# 
  1951  080E                     	;# 
  1952  080F                     	;# 
  1953  0810                     	;# 
  1954  0811                     	;# 
  1955  0812                     	;# 
  1956  0813                     	;# 
  1957  0814                     	;# 
  1958  081A                     	;# 
  1959  081B                     	;# 
  1960  081C                     	;# 
  1961  081D                     	;# 
  1962  081E                     	;# 
  1963  081F                     	;# 
  1964  088C                     	;# 
  1965  088D                     	;# 
  1966  088E                     	;# 
  1967  088F                     	;# 
  1968  0890                     	;# 
  1969  0891                     	;# 
  1970  0892                     	;# 
  1971  0893                     	;# 
  1972  0895                     	;# 
  1973  0896                     	;# 
  1974  0897                     	;# 
  1975  0898                     	;# 
  1976  0899                     	;# 
  1977  089A                     	;# 
  1978  089B                     	;# 
  1979  090C                     	;# 
  1980  090E                     	;# 
  1981  090F                     	;# 
  1982  091F                     	;# 
  1983  098F                     	;# 
  1984  098F                     	;# 
  1985  0990                     	;# 
  1986  0991                     	;# 
  1987  0992                     	;# 
  1988  0993                     	;# 
  1989  0994                     	;# 
  1990  0995                     	;# 
  1991  0996                     	;# 
  1992  0997                     	;# 
  1993  1E0F                     	;# 
  1994  1E10                     	;# 
  1995  1E11                     	;# 
  1996  1E12                     	;# 
  1997  1E13                     	;# 
  1998  1E14                     	;# 
  1999  1E15                     	;# 
  2000  1E16                     	;# 
  2001  1E17                     	;# 
  2002  1E18                     	;# 
  2003  1E19                     	;# 
  2004  1E1A                     	;# 
  2005  1E1B                     	;# 
  2006  1E1C                     	;# 
  2007  1E1D                     	;# 
  2008  1E1E                     	;# 
  2009  1E1F                     	;# 
  2010  1E20                     	;# 
  2011  1E21                     	;# 
  2012  1E22                     	;# 
  2013  1E23                     	;# 
  2014  1E24                     	;# 
  2015  1E25                     	;# 
  2016  1E26                     	;# 
  2017  1E27                     	;# 
  2018  1E28                     	;# 
  2019  1E29                     	;# 
  2020  1E2A                     	;# 
  2021  1E2B                     	;# 
  2022  1E2C                     	;# 
  2023  1E2D                     	;# 
  2024  1E2E                     	;# 
  2025  1E2F                     	;# 
  2026  1E30                     	;# 
  2027  1E31                     	;# 
  2028  1E32                     	;# 
  2029  1E33                     	;# 
  2030  1E34                     	;# 
  2031  1E35                     	;# 
  2032  1E36                     	;# 
  2033  1E37                     	;# 
  2034  1E8F                     	;# 
  2035  1E90                     	;# 
  2036  1E91                     	;# 
  2037  1E92                     	;# 
  2038  1E93                     	;# 
  2039  1E94                     	;# 
  2040  1E95                     	;# 
  2041  1E96                     	;# 
  2042  1E97                     	;# 
  2043  1E9C                     	;# 
  2044  1E9D                     	;# 
  2045  1E9E                     	;# 
  2046  1EA1                     	;# 
  2047  1EA2                     	;# 
  2048  1EA3                     	;# 
  2049  1EA4                     	;# 
  2050  1EA5                     	;# 
  2051  1EA9                     	;# 
  2052  1EAA                     	;# 
  2053  1EAB                     	;# 
  2054  1EAC                     	;# 
  2055  1EB1                     	;# 
  2056  1EB2                     	;# 
  2057  1EB3                     	;# 
  2058  1EB8                     	;# 
  2059  1EB9                     	;# 
  2060  1EBA                     	;# 
  2061  1EBB                     	;# 
  2062  1EBC                     	;# 
  2063  1EBD                     	;# 
  2064  1EBE                     	;# 
  2065  1EC3                     	;# 
  2066  1EC5                     	;# 
  2067  1EC6                     	;# 
  2068  1EC7                     	;# 
  2069  1EC8                     	;# 
  2070  1EC9                     	;# 
  2071  1ECA                     	;# 
  2072  1ECB                     	;# 
  2073  1ECC                     	;# 
  2074  1F10                     	;# 
  2075  1F11                     	;# 
  2076  1F12                     	;# 
  2077  1F13                     	;# 
  2078  1F14                     	;# 
  2079  1F15                     	;# 
  2080  1F16                     	;# 
  2081  1F17                     	;# 
  2082  1F18                     	;# 
  2083  1F19                     	;# 
  2084  1F1A                     	;# 
  2085  1F1B                     	;# 
  2086  1F1C                     	;# 
  2087  1F1D                     	;# 
  2088  1F1E                     	;# 
  2089  1F1F                     	;# 
  2090  1F20                     	;# 
  2091  1F21                     	;# 
  2092  1F22                     	;# 
  2093  1F23                     	;# 
  2094  1F24                     	;# 
  2095  1F25                     	;# 
  2096  1F26                     	;# 
  2097  1F27                     	;# 
  2098  1F38                     	;# 
  2099  1F39                     	;# 
  2100  1F3A                     	;# 
  2101  1F3B                     	;# 
  2102  1F3C                     	;# 
  2103  1F3D                     	;# 
  2104  1F3E                     	;# 
  2105  1F3F                     	;# 
  2106  1F40                     	;# 
  2107  1F41                     	;# 
  2108  1F43                     	;# 
  2109  1F44                     	;# 
  2110  1F45                     	;# 
  2111  1F46                     	;# 
  2112  1F47                     	;# 
  2113  1F48                     	;# 
  2114  1F49                     	;# 
  2115  1F4A                     	;# 
  2116  1F4B                     	;# 
  2117  1F4C                     	;# 
  2118  1F4E                     	;# 
  2119  1F4F                     	;# 
  2120  1F50                     	;# 
  2121  1F51                     	;# 
  2122  1F52                     	;# 
  2123  1F53                     	;# 
  2124  1F54                     	;# 
  2125  1F55                     	;# 
  2126  1F56                     	;# 
  2127  1F57                     	;# 
  2128  1F65                     	;# 
  2129  1F68                     	;# 
  2130  1F69                     	;# 
  2131  1F6A                     	;# 
  2132  1F6B                     	;# 
  2133  1FE4                     	;# 
  2134  1FE5                     	;# 
  2135  1FE6                     	;# 
  2136  1FE7                     	;# 
  2137  1FE8                     	;# 
  2138  1FE9                     	;# 
  2139  1FEA                     	;# 
  2140  1FEB                     	;# 
  2141  1FED                     	;# 
  2142  1FEE                     	;# 
  2143  1FEF                     	;# 
  2144  0000                     	;# 
  2145  0001                     	;# 
  2146  0002                     	;# 
  2147  0003                     	;# 
  2148  0004                     	;# 
  2149  0005                     	;# 
  2150  0006                     	;# 
  2151  0007                     	;# 
  2152  0008                     	;# 
  2153  0009                     	;# 
  2154  000A                     	;# 
  2155  000B                     	;# 
  2156  000C                     	;# 
  2157  000D                     	;# 
  2158  000E                     	;# 
  2159  0010                     	;# 
  2160  0011                     	;# 
  2161  0012                     	;# 
  2162  0013                     	;# 
  2163  0016                     	;# 
  2164  0017                     	;# 
  2165  0018                     	;# 
  2166  001C                     	;# 
  2167  001C                     	;# 
  2168  001D                     	;# 
  2169  001D                     	;# 
  2170  001E                     	;# 
  2171  001F                     	;# 
  2172  008C                     	;# 
  2173  008C                     	;# 
  2174  008D                     	;# 
  2175  008E                     	;# 
  2176  008E                     	;# 
  2177  008F                     	;# 
  2178  0090                     	;# 
  2179  0090                     	;# 
  2180  0091                     	;# 
  2181  0093                     	;# 
  2182  0094                     	;# 
  2183  0095                     	;# 
  2184  0096                     	;# 
  2185  0097                     	;# 
  2186  0098                     	;# 
  2187  0099                     	;# 
  2188  009A                     	;# 
  2189  009B                     	;# 
  2190  009C                     	;# 
  2191  009D                     	;# 
  2192  009E                     	;# 
  2193  010C                     	;# 
  2194  010D                     	;# 
  2195  010E                     	;# 
  2196  010E                     	;# 
  2197  010F                     	;# 
  2198  0110                     	;# 
  2199  0110                     	;# 
  2200  0111                     	;# 
  2201  0112                     	;# 
  2202  0112                     	;# 
  2203  0113                     	;# 
  2204  0114                     	;# 
  2205  0114                     	;# 
  2206  0115                     	;# 
  2207  0116                     	;# 
  2208  0116                     	;# 
  2209  0117                     	;# 
  2210  0119                     	;# 
  2211  0119                     	;# 
  2212  0119                     	;# 
  2213  011A                     	;# 
  2214  011A                     	;# 
  2215  011A                     	;# 
  2216  011B                     	;# 
  2217  011B                     	;# 
  2218  011B                     	;# 
  2219  011B                     	;# 
  2220  011B                     	;# 
  2221  011C                     	;# 
  2222  011C                     	;# 
  2223  011C                     	;# 
  2224  011D                     	;# 
  2225  011D                     	;# 
  2226  011D                     	;# 
  2227  011E                     	;# 
  2228  011E                     	;# 
  2229  011E                     	;# 
  2230  011F                     	;# 
  2231  011F                     	;# 
  2232  011F                     	;# 
  2233  011F                     	;# 
  2234  011F                     	;# 
  2235  018C                     	;# 
  2236  018D                     	;# 
  2237  018E                     	;# 
  2238  018F                     	;# 
  2239  0190                     	;# 
  2240  0191                     	;# 
  2241  0192                     	;# 
  2242  0196                     	;# 
  2243  0197                     	;# 
  2244  0198                     	;# 
  2245  0199                     	;# 
  2246  019A                     	;# 
  2247  019B                     	;# 
  2248  019C                     	;# 
  2249  020C                     	;# 
  2250  020C                     	;# 
  2251  020D                     	;# 
  2252  020E                     	;# 
  2253  020F                     	;# 
  2254  020F                     	;# 
  2255  0210                     	;# 
  2256  0210                     	;# 
  2257  0211                     	;# 
  2258  0211                     	;# 
  2259  0212                     	;# 
  2260  0212                     	;# 
  2261  0213                     	;# 
  2262  0214                     	;# 
  2263  0215                     	;# 
  2264  0215                     	;# 
  2265  0216                     	;# 
  2266  0216                     	;# 
  2267  0217                     	;# 
  2268  0217                     	;# 
  2269  0218                     	;# 
  2270  0218                     	;# 
  2271  0219                     	;# 
  2272  021A                     	;# 
  2273  021B                     	;# 
  2274  021B                     	;# 
  2275  021C                     	;# 
  2276  021C                     	;# 
  2277  021D                     	;# 
  2278  021D                     	;# 
  2279  021E                     	;# 
  2280  021F                     	;# 
  2281  028C                     	;# 
  2282  028C                     	;# 
  2283  028D                     	;# 
  2284  028D                     	;# 
  2285  028E                     	;# 
  2286  028F                     	;# 
  2287  0290                     	;# 
  2288  0290                     	;# 
  2289  0291                     	;# 
  2290  0292                     	;# 
  2291  0292                     	;# 
  2292  0293                     	;# 
  2293  0293                     	;# 
  2294  0294                     	;# 
  2295  0295                     	;# 
  2296  0296                     	;# 
  2297  0296                     	;# 
  2298  0297                     	;# 
  2299  0298                     	;# 
  2300  0298                     	;# 
  2301  0299                     	;# 
  2302  0299                     	;# 
  2303  029A                     	;# 
  2304  029B                     	;# 
  2305  029C                     	;# 
  2306  029C                     	;# 
  2307  029D                     	;# 
  2308  030C                     	;# 
  2309  030C                     	;# 
  2310  030D                     	;# 
  2311  030E                     	;# 
  2312  030F                     	;# 
  2313  0310                     	;# 
  2314  0310                     	;# 
  2315  0311                     	;# 
  2316  0312                     	;# 
  2317  0313                     	;# 
  2318  0314                     	;# 
  2319  0314                     	;# 
  2320  0315                     	;# 
  2321  0316                     	;# 
  2322  0317                     	;# 
  2323  0318                     	;# 
  2324  0318                     	;# 
  2325  0319                     	;# 
  2326  031A                     	;# 
  2327  031B                     	;# 
  2328  031C                     	;# 
  2329  031C                     	;# 
  2330  031D                     	;# 
  2331  031E                     	;# 
  2332  031F                     	;# 
  2333  038C                     	;# 
  2334  038D                     	;# 
  2335  038E                     	;# 
  2336  0390                     	;# 
  2337  0391                     	;# 
  2338  0392                     	;# 
  2339  040C                     	;# 
  2340  040D                     	;# 
  2341  040E                     	;# 
  2342  040F                     	;# 
  2343  0410                     	;# 
  2344  0411                     	;# 
  2345  0416                     	;# 
  2346  0416                     	;# 
  2347  0417                     	;# 
  2348  0418                     	;# 
  2349  0418                     	;# 
  2350  0419                     	;# 
  2351  041A                     	;# 
  2352  041A                     	;# 
  2353  041B                     	;# 
  2354  041C                     	;# 
  2355  041C                     	;# 
  2356  041D                     	;# 
  2357  041E                     	;# 
  2358  041F                     	;# 
  2359  048C                     	;# 
  2360  048C                     	;# 
  2361  048D                     	;# 
  2362  048E                     	;# 
  2363  048F                     	;# 
  2364  048F                     	;# 
  2365  0490                     	;# 
  2366  0491                     	;# 
  2367  0492                     	;# 
  2368  0492                     	;# 
  2369  0493                     	;# 
  2370  0494                     	;# 
  2371  0495                     	;# 
  2372  0495                     	;# 
  2373  0496                     	;# 
  2374  0497                     	;# 
  2375  0498                     	;# 
  2376  0499                     	;# 
  2377  049A                     	;# 
  2378  049B                     	;# 
  2379  049C                     	;# 
  2380  049D                     	;# 
  2381  050C                     	;# 
  2382  050C                     	;# 
  2383  050D                     	;# 
  2384  050E                     	;# 
  2385  050F                     	;# 
  2386  050F                     	;# 
  2387  0510                     	;# 
  2388  0511                     	;# 
  2389  0512                     	;# 
  2390  0512                     	;# 
  2391  0513                     	;# 
  2392  0514                     	;# 
  2393  0515                     	;# 
  2394  0515                     	;# 
  2395  0516                     	;# 
  2396  0517                     	;# 
  2397  0518                     	;# 
  2398  0519                     	;# 
  2399  051A                     	;# 
  2400  051B                     	;# 
  2401  051C                     	;# 
  2402  051D                     	;# 
  2403  058C                     	;# 
  2404  058C                     	;# 
  2405  058D                     	;# 
  2406  058E                     	;# 
  2407  058F                     	;# 
  2408  058F                     	;# 
  2409  0590                     	;# 
  2410  0591                     	;# 
  2411  0592                     	;# 
  2412  0593                     	;# 
  2413  060C                     	;# 
  2414  060D                     	;# 
  2415  060E                     	;# 
  2416  060F                     	;# 
  2417  0610                     	;# 
  2418  0611                     	;# 
  2419  0612                     	;# 
  2420  0613                     	;# 
  2421  0614                     	;# 
  2422  0616                     	;# 
  2423  0617                     	;# 
  2424  0618                     	;# 
  2425  0619                     	;# 
  2426  061A                     	;# 
  2427  061B                     	;# 
  2428  061C                     	;# 
  2429  061D                     	;# 
  2430  061E                     	;# 
  2431  068C                     	;# 
  2432  068D                     	;# 
  2433  068E                     	;# 
  2434  068F                     	;# 
  2435  0690                     	;# 
  2436  0691                     	;# 
  2437  0692                     	;# 
  2438  0693                     	;# 
  2439  0694                     	;# 
  2440  070C                     	;# 
  2441  070D                     	;# 
  2442  070E                     	;# 
  2443  070F                     	;# 
  2444  0710                     	;# 
  2445  0711                     	;# 
  2446  0712                     	;# 
  2447  0713                     	;# 
  2448  0714                     	;# 
  2449  0716                     	;# 
  2450  0717                     	;# 
  2451  0718                     	;# 
  2452  0719                     	;# 
  2453  071A                     	;# 
  2454  071B                     	;# 
  2455  071C                     	;# 
  2456  071D                     	;# 
  2457  071E                     	;# 
  2458  0796                     	;# 
  2459  0797                     	;# 
  2460  0798                     	;# 
  2461  0799                     	;# 
  2462  079A                     	;# 
  2463  079B                     	;# 
  2464  080C                     	;# 
  2465  080D                     	;# 
  2466  080E                     	;# 
  2467  080F                     	;# 
  2468  0810                     	;# 
  2469  0811                     	;# 
  2470  0812                     	;# 
  2471  0813                     	;# 
  2472  0814                     	;# 
  2473  081A                     	;# 
  2474  081B                     	;# 
  2475  081C                     	;# 
  2476  081D                     	;# 
  2477  081E                     	;# 
  2478  081F                     	;# 
  2479  088C                     	;# 
  2480  088D                     	;# 
  2481  088E                     	;# 
  2482  088F                     	;# 
  2483  0890                     	;# 
  2484  0891                     	;# 
  2485  0892                     	;# 
  2486  0893                     	;# 
  2487  0895                     	;# 
  2488  0896                     	;# 
  2489  0897                     	;# 
  2490  0898                     	;# 
  2491  0899                     	;# 
  2492  089A                     	;# 
  2493  089B                     	;# 
  2494  090C                     	;# 
  2495  090E                     	;# 
  2496  090F                     	;# 
  2497  091F                     	;# 
  2498  098F                     	;# 
  2499  098F                     	;# 
  2500  0990                     	;# 
  2501  0991                     	;# 
  2502  0992                     	;# 
  2503  0993                     	;# 
  2504  0994                     	;# 
  2505  0995                     	;# 
  2506  0996                     	;# 
  2507  0997                     	;# 
  2508  1E0F                     	;# 
  2509  1E10                     	;# 
  2510  1E11                     	;# 
  2511  1E12                     	;# 
  2512  1E13                     	;# 
  2513  1E14                     	;# 
  2514  1E15                     	;# 
  2515  1E16                     	;# 
  2516  1E17                     	;# 
  2517  1E18                     	;# 
  2518  1E19                     	;# 
  2519  1E1A                     	;# 
  2520  1E1B                     	;# 
  2521  1E1C                     	;# 
  2522  1E1D                     	;# 
  2523  1E1E                     	;# 
  2524  1E1F                     	;# 
  2525  1E20                     	;# 
  2526  1E21                     	;# 
  2527  1E22                     	;# 
  2528  1E23                     	;# 
  2529  1E24                     	;# 
  2530  1E25                     	;# 
  2531  1E26                     	;# 
  2532  1E27                     	;# 
  2533  1E28                     	;# 
  2534  1E29                     	;# 
  2535  1E2A                     	;# 
  2536  1E2B                     	;# 
  2537  1E2C                     	;# 
  2538  1E2D                     	;# 
  2539  1E2E                     	;# 
  2540  1E2F                     	;# 
  2541  1E30                     	;# 
  2542  1E31                     	;# 
  2543  1E32                     	;# 
  2544  1E33                     	;# 
  2545  1E34                     	;# 
  2546  1E35                     	;# 
  2547  1E36                     	;# 
  2548  1E37                     	;# 
  2549  1E8F                     	;# 
  2550  1E90                     	;# 
  2551  1E91                     	;# 
  2552  1E92                     	;# 
  2553  1E93                     	;# 
  2554  1E94                     	;# 
  2555  1E95                     	;# 
  2556  1E96                     	;# 
  2557  1E97                     	;# 
  2558  1E9C                     	;# 
  2559  1E9D                     	;# 
  2560  1E9E                     	;# 
  2561  1EA1                     	;# 
  2562  1EA2                     	;# 
  2563  1EA3                     	;# 
  2564  1EA4                     	;# 
  2565  1EA5                     	;# 
  2566  1EA9                     	;# 
  2567  1EAA                     	;# 
  2568  1EAB                     	;# 
  2569  1EAC                     	;# 
  2570  1EB1                     	;# 
  2571  1EB2                     	;# 
  2572  1EB3                     	;# 
  2573  1EB8                     	;# 
  2574  1EB9                     	;# 
  2575  1EBA                     	;# 
  2576  1EBB                     	;# 
  2577  1EBC                     	;# 
  2578  1EBD                     	;# 
  2579  1EBE                     	;# 
  2580  1EC3                     	;# 
  2581  1EC5                     	;# 
  2582  1EC6                     	;# 
  2583  1EC7                     	;# 
  2584  1EC8                     	;# 
  2585  1EC9                     	;# 
  2586  1ECA                     	;# 
  2587  1ECB                     	;# 
  2588  1ECC                     	;# 
  2589  1F10                     	;# 
  2590  1F11                     	;# 
  2591  1F12                     	;# 
  2592  1F13                     	;# 
  2593  1F14                     	;# 
  2594  1F15                     	;# 
  2595  1F16                     	;# 
  2596  1F17                     	;# 
  2597  1F18                     	;# 
  2598  1F19                     	;# 
  2599  1F1A                     	;# 
  2600  1F1B                     	;# 
  2601  1F1C                     	;# 
  2602  1F1D                     	;# 
  2603  1F1E                     	;# 
  2604  1F1F                     	;# 
  2605  1F20                     	;# 
  2606  1F21                     	;# 
  2607  1F22                     	;# 
  2608  1F23                     	;# 
  2609  1F24                     	;# 
  2610  1F25                     	;# 
  2611  1F26                     	;# 
  2612  1F27                     	;# 
  2613  1F38                     	;# 
  2614  1F39                     	;# 
  2615  1F3A                     	;# 
  2616  1F3B                     	;# 
  2617  1F3C                     	;# 
  2618  1F3D                     	;# 
  2619  1F3E                     	;# 
  2620  1F3F                     	;# 
  2621  1F40                     	;# 
  2622  1F41                     	;# 
  2623  1F43                     	;# 
  2624  1F44                     	;# 
  2625  1F45                     	;# 
  2626  1F46                     	;# 
  2627  1F47                     	;# 
  2628  1F48                     	;# 
  2629  1F49                     	;# 
  2630  1F4A                     	;# 
  2631  1F4B                     	;# 
  2632  1F4C                     	;# 
  2633  1F4E                     	;# 
  2634  1F4F                     	;# 
  2635  1F50                     	;# 
  2636  1F51                     	;# 
  2637  1F52                     	;# 
  2638  1F53                     	;# 
  2639  1F54                     	;# 
  2640  1F55                     	;# 
  2641  1F56                     	;# 
  2642  1F57                     	;# 
  2643  1F65                     	;# 
  2644  1F68                     	;# 
  2645  1F69                     	;# 
  2646  1F6A                     	;# 
  2647  1F6B                     	;# 
  2648  1FE4                     	;# 
  2649  1FE5                     	;# 
  2650  1FE6                     	;# 
  2651  1FE7                     	;# 
  2652  1FE8                     	;# 
  2653  1FE9                     	;# 
  2654  1FEA                     	;# 
  2655  1FEB                     	;# 
  2656  1FED                     	;# 
  2657  1FEE                     	;# 
  2658  1FEF                     	;# 
  2659  0000                     	;# 
  2660  0001                     	;# 
  2661  0002                     	;# 
  2662  0003                     	;# 
  2663  0004                     	;# 
  2664  0005                     	;# 
  2665  0006                     	;# 
  2666  0007                     	;# 
  2667  0008                     	;# 
  2668  0009                     	;# 
  2669  000A                     	;# 
  2670  000B                     	;# 
  2671  000C                     	;# 
  2672  000D                     	;# 
  2673  000E                     	;# 
  2674  0010                     	;# 
  2675  0011                     	;# 
  2676  0012                     	;# 
  2677  0013                     	;# 
  2678  0016                     	;# 
  2679  0017                     	;# 
  2680  0018                     	;# 
  2681  001C                     	;# 
  2682  001C                     	;# 
  2683  001D                     	;# 
  2684  001D                     	;# 
  2685  001E                     	;# 
  2686  001F                     	;# 
  2687  008C                     	;# 
  2688  008C                     	;# 
  2689  008D                     	;# 
  2690  008E                     	;# 
  2691  008E                     	;# 
  2692  008F                     	;# 
  2693  0090                     	;# 
  2694  0090                     	;# 
  2695  0091                     	;# 
  2696  0093                     	;# 
  2697  0094                     	;# 
  2698  0095                     	;# 
  2699  0096                     	;# 
  2700  0097                     	;# 
  2701  0098                     	;# 
  2702  0099                     	;# 
  2703  009A                     	;# 
  2704  009B                     	;# 
  2705  009C                     	;# 
  2706  009D                     	;# 
  2707  009E                     	;# 
  2708  010C                     	;# 
  2709  010D                     	;# 
  2710  010E                     	;# 
  2711  010E                     	;# 
  2712  010F                     	;# 
  2713  0110                     	;# 
  2714  0110                     	;# 
  2715  0111                     	;# 
  2716  0112                     	;# 
  2717  0112                     	;# 
  2718  0113                     	;# 
  2719  0114                     	;# 
  2720  0114                     	;# 
  2721  0115                     	;# 
  2722  0116                     	;# 
  2723  0116                     	;# 
  2724  0117                     	;# 
  2725  0119                     	;# 
  2726  0119                     	;# 
  2727  0119                     	;# 
  2728  011A                     	;# 
  2729  011A                     	;# 
  2730  011A                     	;# 
  2731  011B                     	;# 
  2732  011B                     	;# 
  2733  011B                     	;# 
  2734  011B                     	;# 
  2735  011B                     	;# 
  2736  011C                     	;# 
  2737  011C                     	;# 
  2738  011C                     	;# 
  2739  011D                     	;# 
  2740  011D                     	;# 
  2741  011D                     	;# 
  2742  011E                     	;# 
  2743  011E                     	;# 
  2744  011E                     	;# 
  2745  011F                     	;# 
  2746  011F                     	;# 
  2747  011F                     	;# 
  2748  011F                     	;# 
  2749  011F                     	;# 
  2750  018C                     	;# 
  2751  018D                     	;# 
  2752  018E                     	;# 
  2753  018F                     	;# 
  2754  0190                     	;# 
  2755  0191                     	;# 
  2756  0192                     	;# 
  2757  0196                     	;# 
  2758  0197                     	;# 
  2759  0198                     	;# 
  2760  0199                     	;# 
  2761  019A                     	;# 
  2762  019B                     	;# 
  2763  019C                     	;# 
  2764  020C                     	;# 
  2765  020C                     	;# 
  2766  020D                     	;# 
  2767  020E                     	;# 
  2768  020F                     	;# 
  2769  020F                     	;# 
  2770  0210                     	;# 
  2771  0210                     	;# 
  2772  0211                     	;# 
  2773  0211                     	;# 
  2774  0212                     	;# 
  2775  0212                     	;# 
  2776  0213                     	;# 
  2777  0214                     	;# 
  2778  0215                     	;# 
  2779  0215                     	;# 
  2780  0216                     	;# 
  2781  0216                     	;# 
  2782  0217                     	;# 
  2783  0217                     	;# 
  2784  0218                     	;# 
  2785  0218                     	;# 
  2786  0219                     	;# 
  2787  021A                     	;# 
  2788  021B                     	;# 
  2789  021B                     	;# 
  2790  021C                     	;# 
  2791  021C                     	;# 
  2792  021D                     	;# 
  2793  021D                     	;# 
  2794  021E                     	;# 
  2795  021F                     	;# 
  2796  028C                     	;# 
  2797  028C                     	;# 
  2798  028D                     	;# 
  2799  028D                     	;# 
  2800  028E                     	;# 
  2801  028F                     	;# 
  2802  0290                     	;# 
  2803  0290                     	;# 
  2804  0291                     	;# 
  2805  0292                     	;# 
  2806  0292                     	;# 
  2807  0293                     	;# 
  2808  0293                     	;# 
  2809  0294                     	;# 
  2810  0295                     	;# 
  2811  0296                     	;# 
  2812  0296                     	;# 
  2813  0297                     	;# 
  2814  0298                     	;# 
  2815  0298                     	;# 
  2816  0299                     	;# 
  2817  0299                     	;# 
  2818  029A                     	;# 
  2819  029B                     	;# 
  2820  029C                     	;# 
  2821  029C                     	;# 
  2822  029D                     	;# 
  2823  030C                     	;# 
  2824  030C                     	;# 
  2825  030D                     	;# 
  2826  030E                     	;# 
  2827  030F                     	;# 
  2828  0310                     	;# 
  2829  0310                     	;# 
  2830  0311                     	;# 
  2831  0312                     	;# 
  2832  0313                     	;# 
  2833  0314                     	;# 
  2834  0314                     	;# 
  2835  0315                     	;# 
  2836  0316                     	;# 
  2837  0317                     	;# 
  2838  0318                     	;# 
  2839  0318                     	;# 
  2840  0319                     	;# 
  2841  031A                     	;# 
  2842  031B                     	;# 
  2843  031C                     	;# 
  2844  031C                     	;# 
  2845  031D                     	;# 
  2846  031E                     	;# 
  2847  031F                     	;# 
  2848  038C                     	;# 
  2849  038D                     	;# 
  2850  038E                     	;# 
  2851  0390                     	;# 
  2852  0391                     	;# 
  2853  0392                     	;# 
  2854  040C                     	;# 
  2855  040D                     	;# 
  2856  040E                     	;# 
  2857  040F                     	;# 
  2858  0410                     	;# 
  2859  0411                     	;# 
  2860  0416                     	;# 
  2861  0416                     	;# 
  2862  0417                     	;# 
  2863  0418                     	;# 
  2864  0418                     	;# 
  2865  0419                     	;# 
  2866  041A                     	;# 
  2867  041A                     	;# 
  2868  041B                     	;# 
  2869  041C                     	;# 
  2870  041C                     	;# 
  2871  041D                     	;# 
  2872  041E                     	;# 
  2873  041F                     	;# 
  2874  048C                     	;# 
  2875  048C                     	;# 
  2876  048D                     	;# 
  2877  048E                     	;# 
  2878  048F                     	;# 
  2879  048F                     	;# 
  2880  0490                     	;# 
  2881  0491                     	;# 
  2882  0492                     	;# 
  2883  0492                     	;# 
  2884  0493                     	;# 
  2885  0494                     	;# 
  2886  0495                     	;# 
  2887  0495                     	;# 
  2888  0496                     	;# 
  2889  0497                     	;# 
  2890  0498                     	;# 
  2891  0499                     	;# 
  2892  049A                     	;# 
  2893  049B                     	;# 
  2894  049C                     	;# 
  2895  049D                     	;# 
  2896  050C                     	;# 
  2897  050C                     	;# 
  2898  050D                     	;# 
  2899  050E                     	;# 
  2900  050F                     	;# 
  2901  050F                     	;# 
  2902  0510                     	;# 
  2903  0511                     	;# 
  2904  0512                     	;# 
  2905  0512                     	;# 
  2906  0513                     	;# 
  2907  0514                     	;# 
  2908  0515                     	;# 
  2909  0515                     	;# 
  2910  0516                     	;# 
  2911  0517                     	;# 
  2912  0518                     	;# 
  2913  0519                     	;# 
  2914  051A                     	;# 
  2915  051B                     	;# 
  2916  051C                     	;# 
  2917  051D                     	;# 
  2918  058C                     	;# 
  2919  058C                     	;# 
  2920  058D                     	;# 
  2921  058E                     	;# 
  2922  058F                     	;# 
  2923  058F                     	;# 
  2924  0590                     	;# 
  2925  0591                     	;# 
  2926  0592                     	;# 
  2927  0593                     	;# 
  2928  060C                     	;# 
  2929  060D                     	;# 
  2930  060E                     	;# 
  2931  060F                     	;# 
  2932  0610                     	;# 
  2933  0611                     	;# 
  2934  0612                     	;# 
  2935  0613                     	;# 
  2936  0614                     	;# 
  2937  0616                     	;# 
  2938  0617                     	;# 
  2939  0618                     	;# 
  2940  0619                     	;# 
  2941  061A                     	;# 
  2942  061B                     	;# 
  2943  061C                     	;# 
  2944  061D                     	;# 
  2945  061E                     	;# 
  2946  068C                     	;# 
  2947  068D                     	;# 
  2948  068E                     	;# 
  2949  068F                     	;# 
  2950  0690                     	;# 
  2951  0691                     	;# 
  2952  0692                     	;# 
  2953  0693                     	;# 
  2954  0694                     	;# 
  2955  070C                     	;# 
  2956  070D                     	;# 
  2957  070E                     	;# 
  2958  070F                     	;# 
  2959  0710                     	;# 
  2960  0711                     	;# 
  2961  0712                     	;# 
  2962  0713                     	;# 
  2963  0714                     	;# 
  2964  0716                     	;# 
  2965  0717                     	;# 
  2966  0718                     	;# 
  2967  0719                     	;# 
  2968  071A                     	;# 
  2969  071B                     	;# 
  2970  071C                     	;# 
  2971  071D                     	;# 
  2972  071E                     	;# 
  2973  0796                     	;# 
  2974  0797                     	;# 
  2975  0798                     	;# 
  2976  0799                     	;# 
  2977  079A                     	;# 
  2978  079B                     	;# 
  2979  080C                     	;# 
  2980  080D                     	;# 
  2981  080E                     	;# 
  2982  080F                     	;# 
  2983  0810                     	;# 
  2984  0811                     	;# 
  2985  0812                     	;# 
  2986  0813                     	;# 
  2987  0814                     	;# 
  2988  081A                     	;# 
  2989  081B                     	;# 
  2990  081C                     	;# 
  2991  081D                     	;# 
  2992  081E                     	;# 
  2993  081F                     	;# 
  2994  088C                     	;# 
  2995  088D                     	;# 
  2996  088E                     	;# 
  2997  088F                     	;# 
  2998  0890                     	;# 
  2999  0891                     	;# 
  3000  0892                     	;# 
  3001  0893                     	;# 
  3002  0895                     	;# 
  3003  0896                     	;# 
  3004  0897                     	;# 
  3005  0898                     	;# 
  3006  0899                     	;# 
  3007  089A                     	;# 
  3008  089B                     	;# 
  3009  090C                     	;# 
  3010  090E                     	;# 
  3011  090F                     	;# 
  3012  091F                     	;# 
  3013  098F                     	;# 
  3014  098F                     	;# 
  3015  0990                     	;# 
  3016  0991                     	;# 
  3017  0992                     	;# 
  3018  0993                     	;# 
  3019  0994                     	;# 
  3020  0995                     	;# 
  3021  0996                     	;# 
  3022  0997                     	;# 
  3023  1E0F                     	;# 
  3024  1E10                     	;# 
  3025  1E11                     	;# 
  3026  1E12                     	;# 
  3027  1E13                     	;# 
  3028  1E14                     	;# 
  3029  1E15                     	;# 
  3030  1E16                     	;# 
  3031  1E17                     	;# 
  3032  1E18                     	;# 
  3033  1E19                     	;# 
  3034  1E1A                     	;# 
  3035  1E1B                     	;# 
  3036  1E1C                     	;# 
  3037  1E1D                     	;# 
  3038  1E1E                     	;# 
  3039  1E1F                     	;# 
  3040  1E20                     	;# 
  3041  1E21                     	;# 
  3042  1E22                     	;# 
  3043  1E23                     	;# 
  3044  1E24                     	;# 
  3045  1E25                     	;# 
  3046  1E26                     	;# 
  3047  1E27                     	;# 
  3048  1E28                     	;# 
  3049  1E29                     	;# 
  3050  1E2A                     	;# 
  3051  1E2B                     	;# 
  3052  1E2C                     	;# 
  3053  1E2D                     	;# 
  3054  1E2E                     	;# 
  3055  1E2F                     	;# 
  3056  1E30                     	;# 
  3057  1E31                     	;# 
  3058  1E32                     	;# 
  3059  1E33                     	;# 
  3060  1E34                     	;# 
  3061  1E35                     	;# 
  3062  1E36                     	;# 
  3063  1E37                     	;# 
  3064  1E8F                     	;# 
  3065  1E90                     	;# 
  3066  1E91                     	;# 
  3067  1E92                     	;# 
  3068  1E93                     	;# 
  3069  1E94                     	;# 
  3070  1E95                     	;# 
  3071  1E96                     	;# 
  3072  1E97                     	;# 
  3073  1E9C                     	;# 
  3074  1E9D                     	;# 
  3075  1E9E                     	;# 
  3076  1EA1                     	;# 
  3077  1EA2                     	;# 
  3078  1EA3                     	;# 
  3079  1EA4                     	;# 
  3080  1EA5                     	;# 
  3081  1EA9                     	;# 
  3082  1EAA                     	;# 
  3083  1EAB                     	;# 
  3084  1EAC                     	;# 
  3085  1EB1                     	;# 
  3086  1EB2                     	;# 
  3087  1EB3                     	;# 
  3088  1EB8                     	;# 
  3089  1EB9                     	;# 
  3090  1EBA                     	;# 
  3091  1EBB                     	;# 
  3092  1EBC                     	;# 
  3093  1EBD                     	;# 
  3094  1EBE                     	;# 
  3095  1EC3                     	;# 
  3096  1EC5                     	;# 
  3097  1EC6                     	;# 
  3098  1EC7                     	;# 
  3099  1EC8                     	;# 
  3100  1EC9                     	;# 
  3101  1ECA                     	;# 
  3102  1ECB                     	;# 
  3103  1ECC                     	;# 
  3104  1F10                     	;# 
  3105  1F11                     	;# 
  3106  1F12                     	;# 
  3107  1F13                     	;# 
  3108  1F14                     	;# 
  3109  1F15                     	;# 
  3110  1F16                     	;# 
  3111  1F17                     	;# 
  3112  1F18                     	;# 
  3113  1F19                     	;# 
  3114  1F1A                     	;# 
  3115  1F1B                     	;# 
  3116  1F1C                     	;# 
  3117  1F1D                     	;# 
  3118  1F1E                     	;# 
  3119  1F1F                     	;# 
  3120  1F20                     	;# 
  3121  1F21                     	;# 
  3122  1F22                     	;# 
  3123  1F23                     	;# 
  3124  1F24                     	;# 
  3125  1F25                     	;# 
  3126  1F26                     	;# 
  3127  1F27                     	;# 
  3128  1F38                     	;# 
  3129  1F39                     	;# 
  3130  1F3A                     	;# 
  3131  1F3B                     	;# 
  3132  1F3C                     	;# 
  3133  1F3D                     	;# 
  3134  1F3E                     	;# 
  3135  1F3F                     	;# 
  3136  1F40                     	;# 
  3137  1F41                     	;# 
  3138  1F43                     	;# 
  3139  1F44                     	;# 
  3140  1F45                     	;# 
  3141  1F46                     	;# 
  3142  1F47                     	;# 
  3143  1F48                     	;# 
  3144  1F49                     	;# 
  3145  1F4A                     	;# 
  3146  1F4B                     	;# 
  3147  1F4C                     	;# 
  3148  1F4E                     	;# 
  3149  1F4F                     	;# 
  3150  1F50                     	;# 
  3151  1F51                     	;# 
  3152  1F52                     	;# 
  3153  1F53                     	;# 
  3154  1F54                     	;# 
  3155  1F55                     	;# 
  3156  1F56                     	;# 
  3157  1F57                     	;# 
  3158  1F65                     	;# 
  3159  1F68                     	;# 
  3160  1F69                     	;# 
  3161  1F6A                     	;# 
  3162  1F6B                     	;# 
  3163  1FE4                     	;# 
  3164  1FE5                     	;# 
  3165  1FE6                     	;# 
  3166  1FE7                     	;# 
  3167  1FE8                     	;# 
  3168  1FE9                     	;# 
  3169  1FEA                     	;# 
  3170  1FEB                     	;# 
  3171  1FED                     	;# 
  3172  1FEE                     	;# 
  3173  1FEF                     	;# 
  3174  0000                     	;# 
  3175  0001                     	;# 
  3176  0002                     	;# 
  3177  0003                     	;# 
  3178  0004                     	;# 
  3179  0005                     	;# 
  3180  0006                     	;# 
  3181  0007                     	;# 
  3182  0008                     	;# 
  3183  0009                     	;# 
  3184  000A                     	;# 
  3185  000B                     	;# 
  3186  000C                     	;# 
  3187  000D                     	;# 
  3188  000E                     	;# 
  3189  0010                     	;# 
  3190  0011                     	;# 
  3191  0012                     	;# 
  3192  0013                     	;# 
  3193  0016                     	;# 
  3194  0017                     	;# 
  3195  0018                     	;# 
  3196  001C                     	;# 
  3197  001C                     	;# 
  3198  001D                     	;# 
  3199  001D                     	;# 
  3200  001E                     	;# 
  3201  001F                     	;# 
  3202  008C                     	;# 
  3203  008C                     	;# 
  3204  008D                     	;# 
  3205  008E                     	;# 
  3206  008E                     	;# 
  3207  008F                     	;# 
  3208  0090                     	;# 
  3209  0090                     	;# 
  3210  0091                     	;# 
  3211  0093                     	;# 
  3212  0094                     	;# 
  3213  0095                     	;# 
  3214  0096                     	;# 
  3215  0097                     	;# 
  3216  0098                     	;# 
  3217  0099                     	;# 
  3218  009A                     	;# 
  3219  009B                     	;# 
  3220  009C                     	;# 
  3221  009D                     	;# 
  3222  009E                     	;# 
  3223  010C                     	;# 
  3224  010D                     	;# 
  3225  010E                     	;# 
  3226  010E                     	;# 
  3227  010F                     	;# 
  3228  0110                     	;# 
  3229  0110                     	;# 
  3230  0111                     	;# 
  3231  0112                     	;# 
  3232  0112                     	;# 
  3233  0113                     	;# 
  3234  0114                     	;# 
  3235  0114                     	;# 
  3236  0115                     	;# 
  3237  0116                     	;# 
  3238  0116                     	;# 
  3239  0117                     	;# 
  3240  0119                     	;# 
  3241  0119                     	;# 
  3242  0119                     	;# 
  3243  011A                     	;# 
  3244  011A                     	;# 
  3245  011A                     	;# 
  3246  011B                     	;# 
  3247  011B                     	;# 
  3248  011B                     	;# 
  3249  011B                     	;# 
  3250  011B                     	;# 
  3251  011C                     	;# 
  3252  011C                     	;# 
  3253  011C                     	;# 
  3254  011D                     	;# 
  3255  011D                     	;# 
  3256  011D                     	;# 
  3257  011E                     	;# 
  3258  011E                     	;# 
  3259  011E                     	;# 
  3260  011F                     	;# 
  3261  011F                     	;# 
  3262  011F                     	;# 
  3263  011F                     	;# 
  3264  011F                     	;# 
  3265  018C                     	;# 
  3266  018D                     	;# 
  3267  018E                     	;# 
  3268  018F                     	;# 
  3269  0190                     	;# 
  3270  0191                     	;# 
  3271  0192                     	;# 
  3272  0196                     	;# 
  3273  0197                     	;# 
  3274  0198                     	;# 
  3275  0199                     	;# 
  3276  019A                     	;# 
  3277  019B                     	;# 
  3278  019C                     	;# 
  3279  020C                     	;# 
  3280  020C                     	;# 
  3281  020D                     	;# 
  3282  020E                     	;# 
  3283  020F                     	;# 
  3284  020F                     	;# 
  3285  0210                     	;# 
  3286  0210                     	;# 
  3287  0211                     	;# 
  3288  0211                     	;# 
  3289  0212                     	;# 
  3290  0212                     	;# 
  3291  0213                     	;# 
  3292  0214                     	;# 
  3293  0215                     	;# 
  3294  0215                     	;# 
  3295  0216                     	;# 
  3296  0216                     	;# 
  3297  0217                     	;# 
  3298  0217                     	;# 
  3299  0218                     	;# 
  3300  0218                     	;# 
  3301  0219                     	;# 
  3302  021A                     	;# 
  3303  021B                     	;# 
  3304  021B                     	;# 
  3305  021C                     	;# 
  3306  021C                     	;# 
  3307  021D                     	;# 
  3308  021D                     	;# 
  3309  021E                     	;# 
  3310  021F                     	;# 
  3311  028C                     	;# 
  3312  028C                     	;# 
  3313  028D                     	;# 
  3314  028D                     	;# 
  3315  028E                     	;# 
  3316  028F                     	;# 
  3317  0290                     	;# 
  3318  0290                     	;# 
  3319  0291                     	;# 
  3320  0292                     	;# 
  3321  0292                     	;# 
  3322  0293                     	;# 
  3323  0293                     	;# 
  3324  0294                     	;# 
  3325  0295                     	;# 
  3326  0296                     	;# 
  3327  0296                     	;# 
  3328  0297                     	;# 
  3329  0298                     	;# 
  3330  0298                     	;# 
  3331  0299                     	;# 
  3332  0299                     	;# 
  3333  029A                     	;# 
  3334  029B                     	;# 
  3335  029C                     	;# 
  3336  029C                     	;# 
  3337  029D                     	;# 
  3338  030C                     	;# 
  3339  030C                     	;# 
  3340  030D                     	;# 
  3341  030E                     	;# 
  3342  030F                     	;# 
  3343  0310                     	;# 
  3344  0310                     	;# 
  3345  0311                     	;# 
  3346  0312                     	;# 
  3347  0313                     	;# 
  3348  0314                     	;# 
  3349  0314                     	;# 
  3350  0315                     	;# 
  3351  0316                     	;# 
  3352  0317                     	;# 
  3353  0318                     	;# 
  3354  0318                     	;# 
  3355  0319                     	;# 
  3356  031A                     	;# 
  3357  031B                     	;# 
  3358  031C                     	;# 
  3359  031C                     	;# 
  3360  031D                     	;# 
  3361  031E                     	;# 
  3362  031F                     	;# 
  3363  038C                     	;# 
  3364  038D                     	;# 
  3365  038E                     	;# 
  3366  0390                     	;# 
  3367  0391                     	;# 
  3368  0392                     	;# 
  3369  040C                     	;# 
  3370  040D                     	;# 
  3371  040E                     	;# 
  3372  040F                     	;# 
  3373  0410                     	;# 
  3374  0411                     	;# 
  3375  0416                     	;# 
  3376  0416                     	;# 
  3377  0417                     	;# 
  3378  0418                     	;# 
  3379  0418                     	;# 
  3380  0419                     	;# 
  3381  041A                     	;# 
  3382  041A                     	;# 
  3383  041B                     	;# 
  3384  041C                     	;# 
  3385  041C                     	;# 
  3386  041D                     	;# 
  3387  041E                     	;# 
  3388  041F                     	;# 
  3389  048C                     	;# 
  3390  048C                     	;# 
  3391  048D                     	;# 
  3392  048E                     	;# 
  3393  048F                     	;# 
  3394  048F                     	;# 
  3395  0490                     	;# 
  3396  0491                     	;# 
  3397  0492                     	;# 
  3398  0492                     	;# 
  3399  0493                     	;# 
  3400  0494                     	;# 
  3401  0495                     	;# 
  3402  0495                     	;# 
  3403  0496                     	;# 
  3404  0497                     	;# 
  3405  0498                     	;# 
  3406  0499                     	;# 
  3407  049A                     	;# 
  3408  049B                     	;# 
  3409  049C                     	;# 
  3410  049D                     	;# 
  3411  050C                     	;# 
  3412  050C                     	;# 
  3413  050D                     	;# 
  3414  050E                     	;# 
  3415  050F                     	;# 
  3416  050F                     	;# 
  3417  0510                     	;# 
  3418  0511                     	;# 
  3419  0512                     	;# 
  3420  0512                     	;# 
  3421  0513                     	;# 
  3422  0514                     	;# 
  3423  0515                     	;# 
  3424  0515                     	;# 
  3425  0516                     	;# 
  3426  0517                     	;# 
  3427  0518                     	;# 
  3428  0519                     	;# 
  3429  051A                     	;# 
  3430  051B                     	;# 
  3431  051C                     	;# 
  3432  051D                     	;# 
  3433  058C                     	;# 
  3434  058C                     	;# 
  3435  058D                     	;# 
  3436  058E                     	;# 
  3437  058F                     	;# 
  3438  058F                     	;# 
  3439  0590                     	;# 
  3440  0591                     	;# 
  3441  0592                     	;# 
  3442  0593                     	;# 
  3443  060C                     	;# 
  3444  060D                     	;# 
  3445  060E                     	;# 
  3446  060F                     	;# 
  3447  0610                     	;# 
  3448  0611                     	;# 
  3449  0612                     	;# 
  3450  0613                     	;# 
  3451  0614                     	;# 
  3452  0616                     	;# 
  3453  0617                     	;# 
  3454  0618                     	;# 
  3455  0619                     	;# 
  3456  061A                     	;# 
  3457  061B                     	;# 
  3458  061C                     	;# 
  3459  061D                     	;# 
  3460  061E                     	;# 
  3461  068C                     	;# 
  3462  068D                     	;# 
  3463  068E                     	;# 
  3464  068F                     	;# 
  3465  0690                     	;# 
  3466  0691                     	;# 
  3467  0692                     	;# 
  3468  0693                     	;# 
  3469  0694                     	;# 
  3470  070C                     	;# 
  3471  070D                     	;# 
  3472  070E                     	;# 
  3473  070F                     	;# 
  3474  0710                     	;# 
  3475  0711                     	;# 
  3476  0712                     	;# 
  3477  0713                     	;# 
  3478  0714                     	;# 
  3479  0716                     	;# 
  3480  0717                     	;# 
  3481  0718                     	;# 
  3482  0719                     	;# 
  3483  071A                     	;# 
  3484  071B                     	;# 
  3485  071C                     	;# 
  3486  071D                     	;# 
  3487  071E                     	;# 
  3488  0796                     	;# 
  3489  0797                     	;# 
  3490  0798                     	;# 
  3491  0799                     	;# 
  3492  079A                     	;# 
  3493  079B                     	;# 
  3494  080C                     	;# 
  3495  080D                     	;# 
  3496  080E                     	;# 
  3497  080F                     	;# 
  3498  0810                     	;# 
  3499  0811                     	;# 
  3500  0812                     	;# 
  3501  0813                     	;# 
  3502  0814                     	;# 
  3503  081A                     	;# 
  3504  081B                     	;# 
  3505  081C                     	;# 
  3506  081D                     	;# 
  3507  081E                     	;# 
  3508  081F                     	;# 
  3509  088C                     	;# 
  3510  088D                     	;# 
  3511  088E                     	;# 
  3512  088F                     	;# 
  3513  0890                     	;# 
  3514  0891                     	;# 
  3515  0892                     	;# 
  3516  0893                     	;# 
  3517  0895                     	;# 
  3518  0896                     	;# 
  3519  0897                     	;# 
  3520  0898                     	;# 
  3521  0899                     	;# 
  3522  089A                     	;# 
  3523  089B                     	;# 
  3524  090C                     	;# 
  3525  090E                     	;# 
  3526  090F                     	;# 
  3527  091F                     	;# 
  3528  098F                     	;# 
  3529  098F                     	;# 
  3530  0990                     	;# 
  3531  0991                     	;# 
  3532  0992                     	;# 
  3533  0993                     	;# 
  3534  0994                     	;# 
  3535  0995                     	;# 
  3536  0996                     	;# 
  3537  0997                     	;# 
  3538  1E0F                     	;# 
  3539  1E10                     	;# 
  3540  1E11                     	;# 
  3541  1E12                     	;# 
  3542  1E13                     	;# 
  3543  1E14                     	;# 
  3544  1E15                     	;# 
  3545  1E16                     	;# 
  3546  1E17                     	;# 
  3547  1E18                     	;# 
  3548  1E19                     	;# 
  3549  1E1A                     	;# 
  3550  1E1B                     	;# 
  3551  1E1C                     	;# 
  3552  1E1D                     	;# 
  3553  1E1E                     	;# 
  3554  1E1F                     	;# 
  3555  1E20                     	;# 
  3556  1E21                     	;# 
  3557  1E22                     	;# 
  3558  1E23                     	;# 
  3559  1E24                     	;# 
  3560  1E25                     	;# 
  3561  1E26                     	;# 
  3562  1E27                     	;# 
  3563  1E28                     	;# 
  3564  1E29                     	;# 
  3565  1E2A                     	;# 
  3566  1E2B                     	;# 
  3567  1E2C                     	;# 
  3568  1E2D                     	;# 
  3569  1E2E                     	;# 
  3570  1E2F                     	;# 
  3571  1E30                     	;# 
  3572  1E31                     	;# 
  3573  1E32                     	;# 
  3574  1E33                     	;# 
  3575  1E34                     	;# 
  3576  1E35                     	;# 
  3577  1E36                     	;# 
  3578  1E37                     	;# 
  3579  1E8F                     	;# 
  3580  1E90                     	;# 
  3581  1E91                     	;# 
  3582  1E92                     	;# 
  3583  1E93                     	;# 
  3584  1E94                     	;# 
  3585  1E95                     	;# 
  3586  1E96                     	;# 
  3587  1E97                     	;# 
  3588  1E9C                     	;# 
  3589  1E9D                     	;# 
  3590  1E9E                     	;# 
  3591  1EA1                     	;# 
  3592  1EA2                     	;# 
  3593  1EA3                     	;# 
  3594  1EA4                     	;# 
  3595  1EA5                     	;# 
  3596  1EA9                     	;# 
  3597  1EAA                     	;# 
  3598  1EAB                     	;# 
  3599  1EAC                     	;# 
  3600  1EB1                     	;# 
  3601  1EB2                     	;# 
  3602  1EB3                     	;# 
  3603  1EB8                     	;# 
  3604  1EB9                     	;# 
  3605  1EBA                     	;# 
  3606  1EBB                     	;# 
  3607  1EBC                     	;# 
  3608  1EBD                     	;# 
  3609  1EBE                     	;# 
  3610  1EC3                     	;# 
  3611  1EC5                     	;# 
  3612  1EC6                     	;# 
  3613  1EC7                     	;# 
  3614  1EC8                     	;# 
  3615  1EC9                     	;# 
  3616  1ECA                     	;# 
  3617  1ECB                     	;# 
  3618  1ECC                     	;# 
  3619  1F10                     	;# 
  3620  1F11                     	;# 
  3621  1F12                     	;# 
  3622  1F13                     	;# 
  3623  1F14                     	;# 
  3624  1F15                     	;# 
  3625  1F16                     	;# 
  3626  1F17                     	;# 
  3627  1F18                     	;# 
  3628  1F19                     	;# 
  3629  1F1A                     	;# 
  3630  1F1B                     	;# 
  3631  1F1C                     	;# 
  3632  1F1D                     	;# 
  3633  1F1E                     	;# 
  3634  1F1F                     	;# 
  3635  1F20                     	;# 
  3636  1F21                     	;# 
  3637  1F22                     	;# 
  3638  1F23                     	;# 
  3639  1F24                     	;# 
  3640  1F25                     	;# 
  3641  1F26                     	;# 
  3642  1F27                     	;# 
  3643  1F38                     	;# 
  3644  1F39                     	;# 
  3645  1F3A                     	;# 
  3646  1F3B                     	;# 
  3647  1F3C                     	;# 
  3648  1F3D                     	;# 
  3649  1F3E                     	;# 
  3650  1F3F                     	;# 
  3651  1F40                     	;# 
  3652  1F41                     	;# 
  3653  1F43                     	;# 
  3654  1F44                     	;# 
  3655  1F45                     	;# 
  3656  1F46                     	;# 
  3657  1F47                     	;# 
  3658  1F48                     	;# 
  3659  1F49                     	;# 
  3660  1F4A                     	;# 
  3661  1F4B                     	;# 
  3662  1F4C                     	;# 
  3663  1F4E                     	;# 
  3664  1F4F                     	;# 
  3665  1F50                     	;# 
  3666  1F51                     	;# 
  3667  1F52                     	;# 
  3668  1F53                     	;# 
  3669  1F54                     	;# 
  3670  1F55                     	;# 
  3671  1F56                     	;# 
  3672  1F57                     	;# 
  3673  1F65                     	;# 
  3674  1F68                     	;# 
  3675  1F69                     	;# 
  3676  1F6A                     	;# 
  3677  1F6B                     	;# 
  3678  1FE4                     	;# 
  3679  1FE5                     	;# 
  3680  1FE6                     	;# 
  3681  1FE7                     	;# 
  3682  1FE8                     	;# 
  3683  1FE9                     	;# 
  3684  1FEA                     	;# 
  3685  1FEB                     	;# 
  3686  1FED                     	;# 
  3687  1FEE                     	;# 
  3688  1FEF                     	;# 
  3689                           
  3690 ;; Function _TMR2_DefaultInterruptHandler is unused but had its address taken
  3691  0000                     
  3692                           	psect	stringtext1
  3693  102D                     __pstringtext1:	
  3694  102D                     _dpowers:	
  3695  102D  3401               	retlw	1
  3696  102E  3400               	retlw	0
  3697  102F  340A               	retlw	10
  3698  1030  3400               	retlw	0
  3699  1031  3464               	retlw	100
  3700  1032  3400               	retlw	0
  3701  1033  34E8               	retlw	232
  3702  1034  3403               	retlw	3
  3703  1035  3410               	retlw	16
  3704  1036  3427               	retlw	39
  3705  1037                     __end_of_dpowers:	
  3706                           
  3707                           	psect	nvBANK0
  3708  0052                     __pnvBANK0:	
  3709  0052                     _TMR2_InterruptHandler:	
  3710  0052                     	ds	2
  3711  000C                     _PORTAbits	set	12
  3712  000E                     _PORTCbits	set	14
  3713  0018                     _LATCbits	set	24
  3714  000B                     _INTCONbits	set	11
  3715  0013                     _TRISC	set	19
  3716  0012                     _TRISB	set	18
  3717  0011                     _TRISA	set	17
  3718  0018                     _LATC	set	24
  3719  0017                     _LATB	set	23
  3720  0016                     _LATA	set	22
  3721  005F                     _GIE	set	95
  3722  0094                     _ADCON1bits	set	148
  3723  008E                     _ADPREVL	set	142
  3724  008F                     _ADPREVH	set	143
  3725  0097                     _ADSTATbits	set	151
  3726  0090                     _ADACCL	set	144
  3727  0091                     _ADACCH	set	145
  3728  0095                     _ADCON2bits	set	149
  3729  0096                     _ADCON3bits	set	150
  3730  008C                     _ADRESL	set	140
  3731  008D                     _ADRESH	set	141
  3732  0093                     _ADCON0bits	set	147
  3733  0093                     _ADCON0	set	147
  3734  009E                     _ADPCH	set	158
  3735  009D                     _ADACQ	set	157
  3736  009C                     _ADPRE	set	156
  3737  009B                     _ADCAP	set	155
  3738  009A                     _ADREF	set	154
  3739  0098                     _ADCLK	set	152
  3740  0097                     _ADSTAT	set	151
  3741  0099                     _ADACT	set	153
  3742  0096                     _ADCON3	set	150
  3743  0095                     _ADCON2	set	149
  3744  0094                     _ADCON1	set	148
  3745  011A                     _TX1REG	set	282
  3746  0119                     _RC1REG	set	281
  3747  011D                     _RC1STAbits	set	285
  3748  011C                     _SP1BRGH	set	284
  3749  011B                     _SP1BRGL	set	283
  3750  011E                     _TX1STA	set	286
  3751  011D                     _RC1STA	set	285
  3752  011F                     _BAUD1CON	set	287
  3753  0116                     _ADERRL	set	278
  3754  0117                     _ADERRH	set	279
  3755  0114                     _ADFLTRL	set	276
  3756  0115                     _ADFLTRH	set	277
  3757  010C                     _ADCNT	set	268
  3758  0113                     _ADSTPTH	set	275
  3759  0112                     _ADSTPTL	set	274
  3760  0111                     _ADUTHH	set	273
  3761  0110                     _ADUTHL	set	272
  3762  010F                     _ADLTHH	set	271
  3763  010E                     _ADLTHL	set	270
  3764  010D                     _ADRPT	set	269
  3765  028D                     _PR2	set	653
  3766  028C                     _TMR2	set	652
  3767  028E                     _T2CONbits	set	654
  3768  0291                     _T2RSTbits	set	657
  3769  028F                     _T2HLTbits	set	655
  3770  028C                     _T2TMR	set	652
  3771  028D                     _T2PR	set	653
  3772  0291                     _T2RST	set	657
  3773  028F                     _T2HLT	set	655
  3774  0290                     _T2CLKCON	set	656
  3775  028E                     _T2CON	set	654
  3776  070F                     _PIR3bits	set	1807
  3777  0710                     _PIR4bits	set	1808
  3778  071A                     _PIE4bits	set	1818
  3779  070D                     _PIR1bits	set	1805
  3780  0717                     _PIE1bits	set	1815
  3781  0892                     _OSCTUNE	set	2194
  3782  0893                     _OSCFRQ	set	2195
  3783  0891                     _OSCEN	set	2193
  3784  088F                     _OSCCON3	set	2191
  3785  088D                     _OSCCON1	set	2189
  3786  1ECB                     _RXPPSbits	set	7883
  3787  1E9C                     _T2AINPPSbits	set	7836
  3788  1E8F                     _PPSLOCKbits	set	7823
  3789  1E8F                     _PPSLOCK	set	7823
  3790  1F20                     _RC0PPS	set	7968
  3791  1F50                     _ODCONC	set	8016
  3792  1F45                     _ODCONB	set	8005
  3793  1F3A                     _ODCONA	set	7994
  3794  1F4F                     _WPUC	set	8015
  3795  1F39                     _WPUA	set	7993
  3796  1F44                     _WPUB	set	8004
  3797  1F38                     _ANSELA	set	7992
  3798  1F43                     _ANSELB	set	8003
  3799  1F4E                     _ANSELC	set	8014
  3800                           
  3801                           	psect	stringtext2
  3802  1000                     __pstringtext2:	
  3803  1000                     STR_1:	
  3804  1000  341B               	retlw	27
  3805  1001  345B               	retlw	91	;'['
  3806  1002  3430               	retlw	48	;'0'
  3807  1003  346D               	retlw	109	;'m'
  3808  1004  341B               	retlw	27
  3809  1005  345B               	retlw	91	;'['
  3810  1006  3432               	retlw	50	;'2'
  3811  1007  344A               	retlw	74	;'J'
  3812  1008  341B               	retlw	27
  3813  1009  345B               	retlw	91	;'['
  3814  100A  3431               	retlw	49	;'1'
  3815  100B  343B               	retlw	59	;';'
  3816  100C  3431               	retlw	49	;'1'
  3817  100D  3448               	retlw	72	;'H'
  3818  100E  341B               	retlw	27
  3819  100F  345B               	retlw	91	;'['
  3820  1010  343F               	retlw	63	;'?'
  3821  1011  3432               	retlw	50	;'2'
  3822  1012  3435               	retlw	53	;'5'
  3823  1013  346C               	retlw	108	;'l'
  3824  1014  3425               	retlw	37	;'%'
  3825  1015  3469               	retlw	105	;'i'
  3826  1016  3400               	retlw	0
  3827                           
  3828                           	psect	stringtext3
  3829  1017                     __pstringtext3:	
  3830  1017                     STR_2:	
  3831  1017  341B               	retlw	27
  3832  1018  345B               	retlw	91	;'['
  3833  1019  3430               	retlw	48	;'0'
  3834  101A  346D               	retlw	109	;'m'
  3835  101B  341B               	retlw	27
  3836  101C  345B               	retlw	91	;'['
  3837  101D  3432               	retlw	50	;'2'
  3838  101E  344A               	retlw	74	;'J'
  3839  101F  341B               	retlw	27
  3840  1020  345B               	retlw	91	;'['
  3841  1021  3431               	retlw	49	;'1'
  3842  1022  343B               	retlw	59	;';'
  3843  1023  3431               	retlw	49	;'1'
  3844  1024  3448               	retlw	72	;'H'
  3845  1025  341B               	retlw	27
  3846  1026  345B               	retlw	91	;'['
  3847  1027  343F               	retlw	63	;'?'
  3848  1028  3432               	retlw	50	;'2'
  3849  1029  3435               	retlw	53	;'5'
  3850  102A  346C               	retlw	108	;'l'
  3851  102B  3430               	retlw	48	;'0'
  3852  102C  3400               	retlw	0
  3853                           
  3854                           	psect	stringtext4
  3855  0000                     __pstringtext4:	
  3856                           
  3857                           ; #config settings
  3858  0000                     
  3859                           	psect	cinit
  3860  0022                     start_initialization:	
  3861  0022                     __initialization:	
  3862                           
  3863                           ; Clear objects allocated to BANK0
  3864  0022  0140               	movlb	0	; select bank0
  3865  0023  01CD               	clrf	__pbssBANK0& (0+127)
  3866  0024  01CE               	clrf	(__pbssBANK0+1)& (0+127)
  3867  0025  01CF               	clrf	(__pbssBANK0+2)& (0+127)
  3868  0026  01D0               	clrf	(__pbssBANK0+3)& (0+127)
  3869  0027  01D1               	clrf	(__pbssBANK0+4)& (0+127)
  3870  0028                     end_of_initialization:	
  3871                           ;End of C runtime variable initialization code
  3872                           
  3873  0028                     __end_of__initialization:	
  3874  0028  107E               	bcf	int$flags,0	;clear compiler interrupt flag (level 1)
  3875  0029  0140               	movlb	0
  3876  002A  3180  282C         	ljmp	_main	;jump to C main() function
  3877                           
  3878                           	psect	bssBANK0
  3879  004D                     __pbssBANK0:	
  3880  004D                     _ADCC_ADI_InterruptHandler:	
  3881  004D                     	ds	2
  3882  004F                     _ido:	
  3883  004F                     	ds	3
  3884                           
  3885                           	psect	cstackBANK1
  3886  00A0                     __pcstackBANK1:	
  3887  00A0                     ??_printf:	
  3888  00A0                     ___ftadd@sign:	
  3889                           ; 1 bytes @ 0x0
  3890                           
  3891  00A0                     ___ftdiv@cntr:	
  3892                           ; 1 bytes @ 0x0
  3893                           
  3894  00A0                     ___ftmul@exp:	
  3895                           ; 1 bytes @ 0x0
  3896                           
  3897                           
  3898                           ; 1 bytes @ 0x0
  3899  00A0                     	ds	1
  3900  00A1                     ___ftadd@exp2:	
  3901  00A1                     ___ftdiv@f3:	
  3902                           ; 1 bytes @ 0x1
  3903                           
  3904  00A1                     ___ftmul@f3_as_product:	
  3905                           ; 3 bytes @ 0x1
  3906                           
  3907                           
  3908                           ; 3 bytes @ 0x1
  3909  00A1                     	ds	1
  3910  00A2                     ___ftadd@exp1:	
  3911                           
  3912                           ; 1 bytes @ 0x2
  3913  00A2                     	ds	2
  3914  00A4                     printf@ap:	
  3915  00A4                     ___ftdiv@exp:	
  3916                           ; 1 bytes @ 0x4
  3917                           
  3918  00A4                     ___ftmul@cntr:	
  3919                           ; 1 bytes @ 0x4
  3920                           
  3921                           
  3922                           ; 1 bytes @ 0x4
  3923  00A4                     	ds	1
  3924  00A5                     printf@flag:	
  3925  00A5                     ___ftdiv@sign:	
  3926                           ; 1 bytes @ 0x5
  3927                           
  3928  00A5                     ___ftmul@sign:	
  3929                           ; 1 bytes @ 0x5
  3930                           
  3931                           
  3932                           ; 1 bytes @ 0x5
  3933  00A5                     	ds	1
  3934  00A6                     printf@prec:	
  3935                           
  3936                           ; 1 bytes @ 0x6
  3937  00A6                     	ds	1
  3938  00A7                     printf@val:	
  3939                           
  3940                           ; 2 bytes @ 0x7
  3941  00A7                     	ds	2
  3942  00A9                     printf@c:	
  3943                           
  3944                           ; 1 bytes @ 0x9
  3945  00A9                     	ds	1
  3946  00AA                     ??_main:	
  3947                           
  3948                           ; 1 bytes @ 0xA
  3949  00AA                     	ds	2
  3950  00AC                     main@tart:	
  3951                           
  3952                           ; 3 bytes @ 0xC
  3953  00AC                     	ds	3
  3954  00AF                     main@kezd:	
  3955                           
  3956                           ; 3 bytes @ 0xF
  3957  00AF                     	ds	3
  3958  00B2                     main@sut:	
  3959                           
  3960                           ; 2 bytes @ 0x12
  3961  00B2                     	ds	2
  3962                           
  3963                           	psect	cstackCOMMON
  3964  0070                     __pcstackCOMMON:	
  3965  0070                     ?_PIN_MANAGER_Initialize:	
  3966  0070                     ?_OSCILLATOR_Initialize:	
  3967                           ; 1 bytes @ 0x0
  3968                           
  3969  0070                     ?_ADCC_Initialize:	
  3970                           ; 1 bytes @ 0x0
  3971                           
  3972  0070                     ?_TMR2_Initialize:	
  3973                           ; 1 bytes @ 0x0
  3974                           
  3975  0070                     ?_EUSART_Initialize:	
  3976                           ; 1 bytes @ 0x0
  3977                           
  3978  0070                     ?_ADCC_ISR:	
  3979                           ; 1 bytes @ 0x0
  3980                           
  3981  0070                     ??_ADCC_ISR:	
  3982                           ; 1 bytes @ 0x0
  3983                           
  3984  0070                     ?_TMR2_ISR:	
  3985                           ; 1 bytes @ 0x0
  3986                           
  3987  0070                     ?_TMR2_Start:	
  3988                           ; 1 bytes @ 0x0
  3989                           
  3990  0070                     ?_SYSTEM_Initialize:	
  3991                           ; 1 bytes @ 0x0
  3992                           
  3993  0070                     ?_INTERRUPT_InterruptManager:	
  3994                           ; 1 bytes @ 0x0
  3995                           
  3996  0070                     ?_ADCC_StartConversion:	
  3997                           ; 1 bytes @ 0x0
  3998                           
  3999  0070                     ?_EUSART_Write:	
  4000                           ; 1 bytes @ 0x0
  4001                           
  4002  0070                     ?_putch:	
  4003                           ; 1 bytes @ 0x0
  4004                           
  4005  0070                     ?_main:	
  4006                           ; 1 bytes @ 0x0
  4007                           
  4008  0070                     ?i1_EUSART_Write:	
  4009                           ; 1 bytes @ 0x0
  4010                           
  4011  0070                     ??i1_EUSART_Write:	
  4012                           ; 1 bytes @ 0x0
  4013                           
  4014  0070                     ?i1_putch:	
  4015                           ; 1 bytes @ 0x0
  4016                           
  4017  0070                     ?i1___lwdiv:	
  4018                           ; 1 bytes @ 0x0
  4019                           
  4020  0070                     ?i1___ftpack:	
  4021                           ; 2 bytes @ 0x0
  4022                           
  4023  0070                     i1EUSART_Write@txData:	
  4024                           ; 3 bytes @ 0x0
  4025                           
  4026  0070                     i1___lwdiv@divisor:	
  4027                           ; 1 bytes @ 0x0
  4028                           
  4029  0070                     i1___ftpack@arg:	
  4030                           ; 2 bytes @ 0x0
  4031                           
  4032                           
  4033                           ; 3 bytes @ 0x0
  4034  0070                     	ds	1
  4035  0071                     ??i1_putch:	
  4036  0071                     i1putch@txData:	
  4037                           ; 1 bytes @ 0x1
  4038                           
  4039                           
  4040                           ; 1 bytes @ 0x1
  4041  0071                     	ds	1
  4042  0072                     i1___lwdiv@dividend:	
  4043                           
  4044                           ; 2 bytes @ 0x2
  4045  0072                     	ds	1
  4046  0073                     i1___ftpack@exp:	
  4047                           
  4048                           ; 1 bytes @ 0x3
  4049  0073                     	ds	1
  4050  0074                     ??i1___lwdiv:	
  4051  0074                     i1___ftpack@sign:	
  4052                           ; 1 bytes @ 0x4
  4053                           
  4054                           
  4055                           ; 1 bytes @ 0x4
  4056  0074                     	ds	1
  4057  0075                     ??i1___ftpack:	
  4058  0075                     i1___lwdiv@quotient:	
  4059                           ; 1 bytes @ 0x5
  4060                           
  4061                           
  4062                           ; 2 bytes @ 0x5
  4063  0075                     	ds	2
  4064  0077                     i1___lwdiv@counter:	
  4065                           
  4066                           ; 1 bytes @ 0x7
  4067  0077                     	ds	1
  4068  0078                     ?i1___lwmod:	
  4069  0078                     ?i1___ftadd:	
  4070                           ; 2 bytes @ 0x8
  4071                           
  4072  0078                     ?i1___ftdiv:	
  4073                           ; 3 bytes @ 0x8
  4074                           
  4075  0078                     i1___lwmod@divisor:	
  4076                           ; 3 bytes @ 0x8
  4077                           
  4078  0078                     i1___ftadd@f1:	
  4079                           ; 2 bytes @ 0x8
  4080                           
  4081  0078                     i1___ftdiv@f2:	
  4082                           ; 3 bytes @ 0x8
  4083                           
  4084                           
  4085                           ; 3 bytes @ 0x8
  4086  0078                     	ds	2
  4087  007A                     i1___lwmod@dividend:	
  4088                           
  4089                           ; 2 bytes @ 0xA
  4090  007A                     	ds	1
  4091  007B                     i1___ftadd@f2:	
  4092  007B                     i1___ftdiv@f1:	
  4093                           ; 3 bytes @ 0xB
  4094                           
  4095                           
  4096                           ; 3 bytes @ 0xB
  4097  007B                     	ds	1
  4098  007C                     ??i1___lwmod:	
  4099                           
  4100                           ; 1 bytes @ 0xC
  4101  007C                     	ds	1
  4102  007D                     i1___lwmod@counter:	
  4103                           
  4104                           ; 1 bytes @ 0xD
  4105  007D                     	ds	1
  4106  007E                     ??_TMR2_ISR:	
  4107                           
  4108                           	psect	cstackBANK0
  4109  0020                     __pcstackBANK0:	
  4110                           ; 1 bytes @ 0xE
  4111                           
  4112  0020                     ??i1___ftadd:	
  4113  0020                     ??i1___ftdiv:	
  4114                           ; 1 bytes @ 0x0
  4115                           
  4116  0020                     ?i1_printf:	
  4117                           ; 1 bytes @ 0x0
  4118                           
  4119  0020                     i1printf@f:	
  4120                           ; 2 bytes @ 0x0
  4121                           
  4122                           
  4123                           ; 2 bytes @ 0x0
  4124  0020                     	ds	4
  4125  0024                     ??i1_printf:	
  4126  0024                     i1___ftadd@sign:	
  4127                           ; 1 bytes @ 0x4
  4128                           
  4129  0024                     i1___ftdiv@cntr:	
  4130                           ; 1 bytes @ 0x4
  4131                           
  4132                           
  4133                           ; 1 bytes @ 0x4
  4134  0024                     	ds	1
  4135  0025                     i1___ftadd@exp2:	
  4136  0025                     i1___ftdiv@f3:	
  4137                           ; 1 bytes @ 0x5
  4138                           
  4139                           
  4140                           ; 3 bytes @ 0x5
  4141  0025                     	ds	1
  4142  0026                     i1___ftadd@exp1:	
  4143                           
  4144                           ; 1 bytes @ 0x6
  4145  0026                     	ds	2
  4146  0028                     i1printf@ap:	
  4147  0028                     i1___ftdiv@exp:	
  4148                           ; 1 bytes @ 0x8
  4149                           
  4150                           
  4151                           ; 1 bytes @ 0x8
  4152  0028                     	ds	1
  4153  0029                     i1printf@flag:	
  4154  0029                     i1___ftdiv@sign:	
  4155                           ; 1 bytes @ 0x9
  4156                           
  4157                           
  4158                           ; 1 bytes @ 0x9
  4159  0029                     	ds	1
  4160  002A                     ?___fttol:	
  4161  002A                     i1printf@prec:	
  4162                           ; 4 bytes @ 0xA
  4163                           
  4164  002A                     ___fttol@f1:	
  4165                           ; 1 bytes @ 0xA
  4166                           
  4167                           
  4168                           ; 3 bytes @ 0xA
  4169  002A                     	ds	1
  4170  002B                     i1printf@val:	
  4171                           
  4172                           ; 2 bytes @ 0xB
  4173  002B                     	ds	2
  4174  002D                     i1printf@c:	
  4175                           
  4176                           ; 1 bytes @ 0xD
  4177  002D                     	ds	1
  4178  002E                     ??___fttol:	
  4179                           
  4180                           ; 1 bytes @ 0xE
  4181  002E                     	ds	4
  4182  0032                     ___fttol@sign1:	
  4183                           
  4184                           ; 1 bytes @ 0x12
  4185  0032                     	ds	1
  4186  0033                     ___fttol@lval:	
  4187                           
  4188                           ; 4 bytes @ 0x13
  4189  0033                     	ds	4
  4190  0037                     ___fttol@exp1:	
  4191                           
  4192                           ; 1 bytes @ 0x17
  4193  0037                     	ds	1
  4194  0038                     TMR2_ISR@ertek:	
  4195                           
  4196                           ; 2 bytes @ 0x18
  4197  0038                     	ds	2
  4198  003A                     ??_INTERRUPT_InterruptManager:	
  4199                           
  4200                           ; 1 bytes @ 0x1A
  4201  003A                     	ds	1
  4202  003B                     ?___ftge:	
  4203  003B                     ??_PIN_MANAGER_Initialize:	
  4204                           ; 1 bit 
  4205                           
  4206  003B                     ??_OSCILLATOR_Initialize:	
  4207                           ; 1 bytes @ 0x1B
  4208                           
  4209  003B                     ??_ADCC_Initialize:	
  4210                           ; 1 bytes @ 0x1B
  4211                           
  4212  003B                     ??_EUSART_Initialize:	
  4213                           ; 1 bytes @ 0x1B
  4214                           
  4215  003B                     ?_TMR2_SetInterruptHandler:	
  4216                           ; 1 bytes @ 0x1B
  4217                           
  4218  003B                     ??_TMR2_Start:	
  4219                           ; 1 bytes @ 0x1B
  4220                           
  4221  003B                     ??_ADCC_StartConversion:	
  4222                           ; 1 bytes @ 0x1B
  4223                           
  4224  003B                     ??_EUSART_Write:	
  4225                           ; 1 bytes @ 0x1B
  4226                           
  4227  003B                     ?_ADCC_GetConversionResult:	
  4228                           ; 1 bytes @ 0x1B
  4229                           
  4230  003B                     ?___lwdiv:	
  4231                           ; 2 bytes @ 0x1B
  4232                           
  4233  003B                     ?___ftpack:	
  4234                           ; 2 bytes @ 0x1B
  4235                           
  4236  003B                     PIN_MANAGER_Initialize@state:	
  4237                           ; 3 bytes @ 0x1B
  4238                           
  4239  003B                     ADCC_StartConversion@channel:	
  4240                           ; 1 bytes @ 0x1B
  4241                           
  4242  003B                     EUSART_Write@txData:	
  4243                           ; 1 bytes @ 0x1B
  4244                           
  4245  003B                     TMR2_SetInterruptHandler@InterruptHandler:	
  4246                           ; 1 bytes @ 0x1B
  4247                           
  4248  003B                     ___lwdiv@divisor:	
  4249                           ; 2 bytes @ 0x1B
  4250                           
  4251  003B                     ___ftpack@arg:	
  4252                           ; 2 bytes @ 0x1B
  4253                           
  4254  003B                     ___ftge@ff1:	
  4255                           ; 3 bytes @ 0x1B
  4256                           
  4257                           
  4258                           ; 3 bytes @ 0x1B
  4259  003B                     	ds	1
  4260  003C                     ??_putch:	
  4261  003C                     putch@txData:	
  4262                           ; 1 bytes @ 0x1C
  4263                           
  4264                           
  4265                           ; 1 bytes @ 0x1C
  4266  003C                     	ds	1
  4267  003D                     ??_TMR2_Initialize:	
  4268  003D                     ??_TMR2_SetInterruptHandler:	
  4269                           ; 1 bytes @ 0x1D
  4270                           
  4271  003D                     ??_SYSTEM_Initialize:	
  4272                           ; 1 bytes @ 0x1D
  4273                           
  4274  003D                     ??_ADCC_GetConversionResult:	
  4275                           ; 1 bytes @ 0x1D
  4276                           
  4277  003D                     ___lwdiv@dividend:	
  4278                           ; 1 bytes @ 0x1D
  4279                           
  4280                           
  4281                           ; 2 bytes @ 0x1D
  4282  003D                     	ds	1
  4283  003E                     ___ftpack@exp:	
  4284  003E                     ___ftge@ff2:	
  4285                           ; 1 bytes @ 0x1E
  4286                           
  4287                           
  4288                           ; 3 bytes @ 0x1E
  4289  003E                     	ds	1
  4290  003F                     ??___lwdiv:	
  4291  003F                     ___ftpack@sign:	
  4292                           ; 1 bytes @ 0x1F
  4293                           
  4294                           
  4295                           ; 1 bytes @ 0x1F
  4296  003F                     	ds	1
  4297  0040                     ??___ftpack:	
  4298  0040                     ___lwdiv@counter:	
  4299                           ; 1 bytes @ 0x20
  4300                           
  4301                           
  4302                           ; 1 bytes @ 0x20
  4303  0040                     	ds	1
  4304  0041                     ??___ftge:	
  4305  0041                     ___lwdiv@quotient:	
  4306                           ; 1 bytes @ 0x21
  4307                           
  4308                           
  4309                           ; 2 bytes @ 0x21
  4310  0041                     	ds	2
  4311  0043                     ?___lwmod:	
  4312  0043                     ?___ftadd:	
  4313                           ; 2 bytes @ 0x23
  4314                           
  4315  0043                     ?___ftdiv:	
  4316                           ; 3 bytes @ 0x23
  4317                           
  4318  0043                     ?___ftmul:	
  4319                           ; 3 bytes @ 0x23
  4320                           
  4321  0043                     ?___lwtoft:	
  4322                           ; 3 bytes @ 0x23
  4323                           
  4324  0043                     ___lwmod@divisor:	
  4325                           ; 3 bytes @ 0x23
  4326                           
  4327  0043                     ___lwtoft@c:	
  4328                           ; 2 bytes @ 0x23
  4329                           
  4330  0043                     ___ftadd@f1:	
  4331                           ; 2 bytes @ 0x23
  4332                           
  4333  0043                     ___ftdiv@f2:	
  4334                           ; 3 bytes @ 0x23
  4335                           
  4336  0043                     ___ftmul@f1:	
  4337                           ; 3 bytes @ 0x23
  4338                           
  4339                           
  4340                           ; 3 bytes @ 0x23
  4341  0043                     	ds	2
  4342  0045                     ___lwmod@dividend:	
  4343                           
  4344                           ; 2 bytes @ 0x25
  4345  0045                     	ds	1
  4346  0046                     ??___lwtoft:	
  4347  0046                     ___ftadd@f2:	
  4348                           ; 1 bytes @ 0x26
  4349                           
  4350  0046                     ___ftdiv@f1:	
  4351                           ; 3 bytes @ 0x26
  4352                           
  4353  0046                     ___ftmul@f2:	
  4354                           ; 3 bytes @ 0x26
  4355                           
  4356                           
  4357                           ; 3 bytes @ 0x26
  4358  0046                     	ds	1
  4359  0047                     ??___lwmod:	
  4360                           
  4361                           ; 1 bytes @ 0x27
  4362  0047                     	ds	1
  4363  0048                     ___lwmod@counter:	
  4364                           
  4365                           ; 1 bytes @ 0x28
  4366  0048                     	ds	1
  4367  0049                     ??___ftadd:	
  4368  0049                     ??___ftdiv:	
  4369                           ; 1 bytes @ 0x29
  4370                           
  4371  0049                     ??___ftmul:	
  4372                           ; 1 bytes @ 0x29
  4373                           
  4374  0049                     ?_printf:	
  4375                           ; 1 bytes @ 0x29
  4376                           
  4377  0049                     printf@f:	
  4378                           ; 2 bytes @ 0x29
  4379                           
  4380                           
  4381                           ; 2 bytes @ 0x29
  4382  0049                     	ds	4
  4383                           
  4384                           	psect	maintext
  4385  002C                     __pmaintext:	
  4386 ;;
  4387 ;;Main: autosize = 0, tempsize = 2, incstack = 0, save=0
  4388 ;;
  4389 ;; *************** function _main *****************
  4390 ;; Defined at:
  4391 ;;		line 7 in file "main.c"
  4392 ;; Parameters:    Size  Location     Type
  4393 ;;		None
  4394 ;; Auto vars:     Size  Location     Type
  4395 ;;  kezd            3   15[BANK1 ] PTR FTN()void 
  4396 ;;  tart            3   12[BANK1 ] PTR FTN()void 
  4397 ;;  sut             2   18[BANK1 ] int 
  4398 ;; Return value:  Size  Location     Type
  4399 ;;                  1    wreg      void 
  4400 ;; Registers used:
  4401 ;;		wreg, fsr0l, fsr0h, fsr1l, fsr1h, status,2, status,0, pclath, cstack
  4402 ;; Tracked objects:
  4403 ;;		On entry : B3F/0
  4404 ;;		On exit  : 0/0
  4405 ;;		Unchanged: 0/0
  4406 ;; Data sizes:     COMMON   BANK0   BANK1   BANK2   BANK3   BANK4   BANK5   BANK6   BANK7   BANK8   BANK9  BANK10  BANK1
      +1  BANK12  BANK13  BANK14  BANK15  BANK16  BANK17  BANK18  BANK19  BANK20  BANK21  BANK22  BANK23  BANK24  BANK25  BANK2
      +6  BANK27  BANK28  BANK29  BANK30  BANK31  BANK32  BANK33  BANK34  BANK35  BANK36  BANK37  BANK38  BANK39  BANK40  BANK4
      +1  BANK42  BANK43  BANK44  BANK45  BANK46  BANK47  BANK48  BANK49  BANK50
  4407 ;;      Params:         0       0       0       0       0       0       0       0       0       0       0       0       
      +0       0       0       0       0       0       0       0       0       0       0       0       0       0       0       
      +0       0       0       0       0       0       0       0       0       0       0       0       0       0       0       
      +0       0       0       0       0       0       0       0       0       0
  4408 ;;      Locals:         0       0       8       0       0       0       0       0       0       0       0       0       
      +0       0       0       0       0       0       0       0       0       0       0       0       0       0       0       
      +0       0       0       0       0       0       0       0       0       0       0       0       0       0       0       
      +0       0       0       0       0       0       0       0       0       0
  4409 ;;      Temps:          0       0       2       0       0       0       0       0       0       0       0       0       
      +0       0       0       0       0       0       0       0       0       0       0       0       0       0       0       
      +0       0       0       0       0       0       0       0       0       0       0       0       0       0       0       
      +0       0       0       0       0       0       0       0       0       0
  4410 ;;      Totals:         0       0      10       0       0       0       0       0       0       0       0       0       
      +0       0       0       0       0       0       0       0       0       0       0       0       0       0       0       
      +0       0       0       0       0       0       0       0       0       0       0       0       0       0       0       
      +0       0       0       0       0       0       0       0       0       0
  4411 ;;Total ram usage:       10 bytes
  4412 ;; Hardware stack levels required when called:    8
  4413 ;; This function calls:
  4414 ;;		_ADCC_GetConversionResult
  4415 ;;		_ADCC_StartConversion
  4416 ;;		_SYSTEM_Initialize
  4417 ;;		___ftadd
  4418 ;;		___ftdiv
  4419 ;;		___ftge
  4420 ;;		___ftmul
  4421 ;;		___lwtoft
  4422 ;;		_printf
  4423 ;; This function is called by:
  4424 ;;		Startup code after reset
  4425 ;; This function uses a non-reentrant model
  4426 ;;
  4427                           
  4428                           
  4429                           ;psect for function _main
  4430  002C                     _main:	
  4431                           
  4432                           ;main.c: 10: SYSTEM_Initialize();
  4433                           
  4434                           ;incstack = 0
  4435                           ; Regs used in _main: [wreg-fsr1h+status,2+status,0+pclath+cstack]
  4436  002C  318D  2584  3180   	fcall	_SYSTEM_Initialize
  4437                           
  4438                           ;main.c: 27: ADCC_StartConversion( 1 );
  4439  002F  3001               	movlw	1
  4440  0030  318D  2555  3180   	fcall	_ADCC_StartConversion
  4441                           
  4442                           ;main.c: 28: int sut;sut=0;
  4443  0033  0141               	movlb	1	; select bank1
  4444  0034  01B2               	clrf	main@sut^(0+128)
  4445  0035  01B3               	clrf	(main@sut+1)^(0+128)
  4446  0036                     l3059:	
  4447                           ;main.c: 29: double kezd,tart;
  4448                           ;main.c: 30: while (1)
  4449                           
  4450                           
  4451                           ;main.c: 31: {
  4452                           ;main.c: 32: tart = ADCC_GetConversionResult();
  4453  0036  318D  255D  3180   	fcall	_ADCC_GetConversionResult
  4454  0039  0140               	movlb	0	; select bank0
  4455  003A  083C               	movf	?_ADCC_GetConversionResult+1,w
  4456  003B  00C4               	movwf	___lwtoft@c+1
  4457  003C  083B               	movf	?_ADCC_GetConversionResult,w
  4458  003D  00C3               	movwf	___lwtoft@c
  4459  003E  318D  2593  3180   	fcall	___lwtoft
  4460  0041  0140               	movlb	0	; select bank0
  4461  0042  0843               	movf	?___lwtoft,w
  4462  0043  0141               	movlb	1	; select bank1
  4463  0044  00AC               	movwf	main@tart^(0+128)
  4464  0045  0140               	movlb	0	; select bank0
  4465  0046  0844               	movf	?___lwtoft+1,w
  4466  0047  0141               	movlb	1	; select bank1
  4467  0048  00AD               	movwf	(main@tart+1)^(0+128)
  4468  0049  0140               	movlb	0	; select bank0
  4469  004A  0845               	movf	?___lwtoft+2,w
  4470  004B  0141               	movlb	1	; select bank1
  4471  004C  00AE               	movwf	(main@tart+2)^(0+128)
  4472                           
  4473                           ;main.c: 33: if( sut == 1 && ido == 0 || sut == 1 && ido < 0 )
  4474  004D  0332               	decf	main@sut^(0+128),w
  4475  004E  0433               	iorwf	(main@sut+1)^(0+128),w
  4476  004F  1D03               	btfss	3,2
  4477  0050  2857               	goto	l3065
  4478  0051  0140               	movlb	0	; select bank0
  4479  0052  0851               	movf	_ido+2,w
  4480  0053  0450               	iorwf	_ido+1,w
  4481  0054  044F               	iorwf	_ido,w
  4482  0055  1903               	skipnz
  4483  0056  286E               	goto	l3069
  4484  0057                     l3065:	
  4485  0057  0141               	movlb	1	; select bank1
  4486  0058  0332               	decf	main@sut^(0+128),w
  4487  0059  0433               	iorwf	(main@sut+1)^(0+128),w
  4488  005A  1D03               	btfss	3,2
  4489  005B  287D               	goto	l3083
  4490  005C  0140               	movlb	0	; select bank0
  4491  005D  084F               	movf	_ido,w
  4492  005E  00BB               	movwf	___ftge@ff1
  4493  005F  0850               	movf	_ido+1,w
  4494  0060  00BC               	movwf	___ftge@ff1+1
  4495  0061  0851               	movf	_ido+2,w
  4496  0062  00BD               	movwf	___ftge@ff1+2
  4497  0063  3000               	movlw	0
  4498  0064  00BE               	movwf	___ftge@ff2
  4499  0065  3000               	movlw	0
  4500  0066  00BF               	movwf	___ftge@ff2+1
  4501  0067  3000               	movlw	0
  4502  0068  00C0               	movwf	___ftge@ff2+2
  4503  0069  318E  26AD  3180   	fcall	___ftge
  4504  006C  1803               	btfsc	3,0
  4505  006D  287D               	goto	l3083
  4506  006E                     l3069:	
  4507                           
  4508                           ;main.c: 34: {
  4509                           ;main.c: 35: sut = 0;
  4510  006E  0141               	movlb	1	; select bank1
  4511  006F  01B2               	clrf	main@sut^(0+128)
  4512  0070  01B3               	clrf	(main@sut+1)^(0+128)
  4513                           
  4514                           ;main.c: 36: (INTCONbits.GIE = 0);
  4515  0071  138B               	bcf	11,7	;volatile
  4516                           
  4517                           ;main.c: 37: (INTCONbits.PEIE = 0);
  4518  0072  130B               	bcf	11,6	;volatile
  4519                           
  4520                           ;main.c: 38: do { LATCbits.LATC4 = 0; } while(0);
  4521  0073  0140               	movlb	0	; select bank0
  4522  0074  1218               	bcf	24,4	;volatile
  4523                           
  4524                           ;main.c: 39: do { LATCbits.LATC6 = 0; } while(0);
  4525  0075  1318               	bcf	24,6	;volatile
  4526                           
  4527                           ;main.c: 40: do { LATCbits.LATC5 = 0; } while(0);
  4528  0076  1298               	bcf	24,5	;volatile
  4529                           
  4530                           ;main.c: 41: ido=0;
  4531  0077  3000               	movlw	0
  4532  0078  00CF               	movwf	_ido
  4533  0079  3000               	movlw	0
  4534  007A  00D0               	movwf	_ido+1
  4535  007B  3000               	movlw	0
  4536  007C  00D1               	movwf	_ido+2
  4537  007D                     l3083:	
  4538                           
  4539                           ;main.c: 42: }
  4540                           ;main.c: 43: if(ido < 0 && PORTAbits.RA7 == 0 || ido == 0 && PORTAbits.RA7 == 0 )
  4541  007D  0140               	movlb	0	; select bank0
  4542  007E  084F               	movf	_ido,w
  4543  007F  00BB               	movwf	___ftge@ff1
  4544  0080  0850               	movf	_ido+1,w
  4545  0081  00BC               	movwf	___ftge@ff1+1
  4546  0082  0851               	movf	_ido+2,w
  4547  0083  00BD               	movwf	___ftge@ff1+2
  4548  0084  3000               	movlw	0
  4549  0085  00BE               	movwf	___ftge@ff2
  4550  0086  3000               	movlw	0
  4551  0087  00BF               	movwf	___ftge@ff2+1
  4552  0088  3000               	movlw	0
  4553  0089  00C0               	movwf	___ftge@ff2+2
  4554  008A  318E  26AD  3180   	fcall	___ftge
  4555  008D  1803               	btfsc	3,0
  4556  008E  2892               	goto	l3087
  4557  008F  0140               	movlb	0	; select bank0
  4558  0090  1F8C               	btfss	12,7	;volatile
  4559  0091  2899               	goto	l3091
  4560  0092                     l3087:	
  4561  0092  0140               	movlb	0	; select bank0
  4562  0093  0851               	movf	_ido+2,w
  4563  0094  0450               	iorwf	_ido+1,w
  4564  0095  044F               	iorwf	_ido,w
  4565  0096  1903               	btfsc	3,2
  4566  0097  1B8C               	btfsc	12,7	;volatile
  4567  0098  28EC               	goto	l3099
  4568  0099                     l3091:	
  4569                           
  4570                           ;main.c: 44: {
  4571                           ;main.c: 45: ido = tart;
  4572  0099  0141               	movlb	1	; select bank1
  4573  009A  082C               	movf	main@tart^(0+128),w
  4574  009B  0140               	movlb	0	; select bank0
  4575  009C  00CF               	movwf	_ido
  4576  009D  0141               	movlb	1	; select bank1
  4577  009E  082D               	movf	(main@tart+1)^(0+128),w
  4578  009F  0140               	movlb	0	; select bank0
  4579  00A0  00D0               	movwf	_ido+1
  4580  00A1  0141               	movlb	1	; select bank1
  4581  00A2  082E               	movf	(main@tart+2)^(0+128),w
  4582  00A3  0140               	movlb	0	; select bank0
  4583  00A4  00D1               	movwf	_ido+2
  4584                           
  4585                           ;main.c: 46: ido = ido / 10;
  4586  00A5  3000               	movlw	0
  4587  00A6  00C3               	movwf	___ftdiv@f2
  4588  00A7  3020               	movlw	32
  4589  00A8  00C4               	movwf	___ftdiv@f2+1
  4590  00A9  3041               	movlw	65
  4591  00AA  00C5               	movwf	___ftdiv@f2+2
  4592  00AB  084F               	movf	_ido,w
  4593  00AC  00C6               	movwf	___ftdiv@f1
  4594  00AD  0850               	movf	_ido+1,w
  4595  00AE  00C7               	movwf	___ftdiv@f1+1
  4596  00AF  0851               	movf	_ido+2,w
  4597  00B0  00C8               	movwf	___ftdiv@f1+2
  4598  00B1  3185  2522  3180   	fcall	___ftdiv
  4599  00B4  0140               	movlb	0	; select bank0
  4600  00B5  0843               	movf	?___ftdiv,w
  4601  00B6  00CF               	movwf	_ido
  4602  00B7  0844               	movf	?___ftdiv+1,w
  4603  00B8  00D0               	movwf	_ido+1
  4604  00B9  0845               	movf	?___ftdiv+2,w
  4605  00BA  00D1               	movwf	_ido+2
  4606                           
  4607                           ;main.c: 47: ido = 12 * ido;
  4608  00BB  3000               	movlw	0
  4609  00BC  00C3               	movwf	___ftmul@f1
  4610  00BD  3040               	movlw	64
  4611  00BE  00C4               	movwf	___ftmul@f1+1
  4612  00BF  3041               	movlw	65
  4613  00C0  00C5               	movwf	___ftmul@f1+2
  4614  00C1  084F               	movf	_ido,w
  4615  00C2  00C6               	movwf	___ftmul@f2
  4616  00C3  0850               	movf	_ido+1,w
  4617  00C4  00C7               	movwf	___ftmul@f2+1
  4618  00C5  0851               	movf	_ido+2,w
  4619  00C6  00C8               	movwf	___ftmul@f2+2
  4620  00C7  3183  2376  3180   	fcall	___ftmul
  4621  00CA  0140               	movlb	0	; select bank0
  4622  00CB  0843               	movf	?___ftmul,w
  4623  00CC  00CF               	movwf	_ido
  4624  00CD  0844               	movf	?___ftmul+1,w
  4625  00CE  00D0               	movwf	_ido+1
  4626  00CF  0845               	movf	?___ftmul+2,w
  4627  00D0  00D1               	movwf	_ido+2
  4628                           
  4629                           ;main.c: 48: kezd = ido-2;
  4630  00D1  3000               	movlw	0
  4631  00D2  00C3               	movwf	___ftadd@f1
  4632  00D3  3000               	movlw	0
  4633  00D4  00C4               	movwf	___ftadd@f1+1
  4634  00D5  30C0               	movlw	192
  4635  00D6  00C5               	movwf	___ftadd@f1+2
  4636  00D7  084F               	movf	_ido,w
  4637  00D8  00C6               	movwf	___ftadd@f2
  4638  00D9  0850               	movf	_ido+1,w
  4639  00DA  00C7               	movwf	___ftadd@f2+1
  4640  00DB  0851               	movf	_ido+2,w
  4641  00DC  00C8               	movwf	___ftadd@f2+2
  4642  00DD  3181  2167  3180   	fcall	___ftadd
  4643  00E0  0140               	movlb	0	; select bank0
  4644  00E1  0843               	movf	?___ftadd,w
  4645  00E2  0141               	movlb	1	; select bank1
  4646  00E3  00AF               	movwf	main@kezd^(0+128)
  4647  00E4  0140               	movlb	0	; select bank0
  4648  00E5  0844               	movf	?___ftadd+1,w
  4649  00E6  0141               	movlb	1	; select bank1
  4650  00E7  00B0               	movwf	(main@kezd+1)^(0+128)
  4651  00E8  0140               	movlb	0	; select bank0
  4652  00E9  0845               	movf	?___ftadd+2,w
  4653  00EA  0141               	movlb	1	; select bank1
  4654  00EB  00B1               	movwf	(main@kezd+2)^(0+128)
  4655  00EC                     l3099:	
  4656                           
  4657                           ;main.c: 49: }
  4658                           ;main.c: 50: if(PORTAbits.RA7 == 0 && PORTCbits.RC4 == 0)
  4659  00EC  0140               	movlb	0	; select bank0
  4660  00ED  1F8C               	btfss	12,7	;volatile
  4661  00EE  1A0E               	btfsc	14,4	;volatile
  4662  00EF  2915               	goto	l3115
  4663                           
  4664                           ;main.c: 51: {
  4665                           ;main.c: 52: sut = 1;
  4666  00F0  3001               	movlw	1
  4667  00F1  0141               	movlb	1	; select bank1
  4668  00F2  00B2               	movwf	main@sut^(0+128)
  4669  00F3  3000               	movlw	0
  4670  00F4  00B3               	movwf	(main@sut^(0+128)+1)
  4671                           
  4672                           ;main.c: 53: do { LATCbits.LATC4 = 1; } while(0);
  4673  00F5  0140               	movlb	0	; select bank0
  4674  00F6  1618               	bsf	24,4	;volatile
  4675                           
  4676                           ;main.c: 54: do { LATCbits.LATC5 = 1; } while(0);
  4677  00F7  1698               	bsf	24,5	;volatile
  4678                           
  4679                           ;main.c: 55: kezd = ido-2;
  4680  00F8  3000               	movlw	0
  4681  00F9  00C3               	movwf	___ftadd@f1
  4682  00FA  3000               	movlw	0
  4683  00FB  00C4               	movwf	___ftadd@f1+1
  4684  00FC  30C0               	movlw	192
  4685  00FD  00C5               	movwf	___ftadd@f1+2
  4686  00FE  084F               	movf	_ido,w
  4687  00FF  00C6               	movwf	___ftadd@f2
  4688  0100  0850               	movf	_ido+1,w
  4689  0101  00C7               	movwf	___ftadd@f2+1
  4690  0102  0851               	movf	_ido+2,w
  4691  0103  00C8               	movwf	___ftadd@f2+2
  4692  0104  3181  2167  3180   	fcall	___ftadd
  4693  0107  0140               	movlb	0	; select bank0
  4694  0108  0843               	movf	?___ftadd,w
  4695  0109  0141               	movlb	1	; select bank1
  4696  010A  00AF               	movwf	main@kezd^(0+128)
  4697  010B  0140               	movlb	0	; select bank0
  4698  010C  0844               	movf	?___ftadd+1,w
  4699  010D  0141               	movlb	1	; select bank1
  4700  010E  00B0               	movwf	(main@kezd+1)^(0+128)
  4701  010F  0140               	movlb	0	; select bank0
  4702  0110  0845               	movf	?___ftadd+2,w
  4703  0111  0141               	movlb	1	; select bank1
  4704  0112  00B1               	movwf	(main@kezd+2)^(0+128)
  4705                           
  4706                           ;main.c: 56: (INTCONbits.GIE = 1);
  4707  0113  178B               	bsf	11,7	;volatile
  4708                           
  4709                           ;main.c: 57: (INTCONbits.PEIE = 1);
  4710  0114  170B               	bsf	11,6	;volatile
  4711  0115                     l3115:	
  4712                           
  4713                           ;main.c: 58: }
  4714                           ;main.c: 59: if(PORTAbits.RA6 == 0)
  4715  0115  0140               	movlb	0	; select bank0
  4716  0116  1B0C               	btfsc	12,6	;volatile
  4717  0117  2921               	goto	l3121
  4718                           
  4719                           ;main.c: 60: {
  4720                           ;main.c: 61: do { LATCbits.LATC4 = 0; } while(0);
  4721  0118  1218               	bcf	24,4	;volatile
  4722                           
  4723                           ;main.c: 62: do { LATCbits.LATC5 = 1; } while(0);
  4724  0119  1698               	bsf	24,5	;volatile
  4725  011A                     l456:	
  4726                           ;main.c: 63: while(PORTAbits.RA6 == 0);
  4727                           
  4728  011A  1F0C               	btfss	12,6	;volatile
  4729  011B  291A               	goto	l456
  4730                           
  4731                           ;main.c: 64: sut = 0;
  4732  011C  0141               	movlb	1	; select bank1
  4733  011D  01B2               	clrf	main@sut^(0+128)
  4734  011E  01B3               	clrf	(main@sut+1)^(0+128)
  4735                           
  4736                           ;main.c: 65: do { LATCbits.LATC5 = 0; } while(0);
  4737  011F  0140               	movlb	0	; select bank0
  4738  0120  1298               	bcf	24,5	;volatile
  4739  0121                     l3121:	
  4740                           
  4741                           ;main.c: 66: }
  4742                           ;main.c: 67: if( sut == 1 && PORTAbits.RA7 == 0 && kezd > ido )
  4743  0121  0141               	movlb	1	; select bank1
  4744  0122  0332               	decf	main@sut^(0+128),w
  4745  0123  0433               	iorwf	(main@sut+1)^(0+128),w
  4746  0124  1D03               	btfss	3,2
  4747  0125  2836               	goto	l3059
  4748  0126  0140               	movlb	0	; select bank0
  4749  0127  1B8C               	btfsc	12,7	;volatile
  4750  0128  2836               	goto	l3059
  4751  0129  084F               	movf	_ido,w
  4752  012A  00BB               	movwf	___ftge@ff1
  4753  012B  0850               	movf	_ido+1,w
  4754  012C  00BC               	movwf	___ftge@ff1+1
  4755  012D  0851               	movf	_ido+2,w
  4756  012E  00BD               	movwf	___ftge@ff1+2
  4757  012F  0141               	movlb	1	; select bank1
  4758  0130  082F               	movf	main@kezd^(0+128),w
  4759  0131  0140               	movlb	0	; select bank0
  4760  0132  00BE               	movwf	___ftge@ff2
  4761  0133  0141               	movlb	1	; select bank1
  4762  0134  0830               	movf	(main@kezd+1)^(0+128),w
  4763  0135  0140               	movlb	0	; select bank0
  4764  0136  00BF               	movwf	___ftge@ff2+1
  4765  0137  0141               	movlb	1	; select bank1
  4766  0138  0831               	movf	(main@kezd+2)^(0+128),w
  4767  0139  0140               	movlb	0	; select bank0
  4768  013A  00C0               	movwf	___ftge@ff2+2
  4769  013B  318E  26AD  3180   	fcall	___ftge
  4770  013E  1803               	btfsc	3,0
  4771  013F  2836               	goto	l3059
  4772                           
  4773                           ;main.c: 68: {
  4774                           ;main.c: 69: (INTCONbits.GIE = 0);
  4775  0140  138B               	bcf	11,7	;volatile
  4776                           
  4777                           ;main.c: 70: (INTCONbits.PEIE = 0);
  4778  0141  130B               	bcf	11,6	;volatile
  4779                           
  4780                           ;main.c: 71: do { LATCbits.LATC4 = 0; } while(0);
  4781  0142  0140               	movlb	0	; select bank0
  4782  0143  1218               	bcf	24,4	;volatile
  4783                           
  4784                           ;main.c: 72: do { LATCbits.LATC6 = 0; } while(0);
  4785  0144  1318               	bcf	24,6	;volatile
  4786                           
  4787                           ;main.c: 73: do { LATCbits.LATC5 = 0; } while(0);
  4788  0145  1298               	bcf	24,5	;volatile
  4789                           
  4790                           ;main.c: 74: do { LATCbits.LATC7 = 1; } while(0);
  4791  0146  1798               	bsf	24,7	;volatile
  4792                           
  4793                           ;main.c: 75: ido=0;
  4794  0147  3000               	movlw	0
  4795  0148  00CF               	movwf	_ido
  4796  0149  3000               	movlw	0
  4797  014A  00D0               	movwf	_ido+1
  4798  014B  3000               	movlw	0
  4799  014C  00D1               	movwf	_ido+2
  4800                           
  4801                           ;main.c: 76: printf("\033[0m\033[2J\033[1;1H\033[?25l0");
  4802  014D  3017               	movlw	low (STR_2| (0+32768))
  4803  014E  00C9               	movwf	printf@f
  4804  014F  3090               	movlw	high (STR_2| (0+32768))
  4805  0150  00CA               	movwf	printf@f+1
  4806  0151  3184  2457  3180   	fcall	_printf
  4807  0154                     l470:	
  4808                           ;main.c: 77: while(PORTAbits.RA7 == 0);
  4809                           
  4810  0154  0140               	movlb	0	; select bank0
  4811  0155  1F8C               	btfss	12,7	;volatile
  4812  0156  2954               	goto	l470
  4813                           
  4814                           ;main.c: 78: _delay((unsigned long)((500)*(4000000/4000.0)));
  4815  0157  3003               	movlw	3
  4816  0158  0141               	movlb	1	; select bank1
  4817  0159  00AB               	movwf	(??_main^(0+128)+1)
  4818  015A  308A               	movlw	138
  4819  015B  00AA               	movwf	??_main^(0+128)
  4820  015C  3055               	movlw	85
  4821  015D                     u4617:	
  4822  015D  0B89               	decfsz	9,f
  4823  015E  295D               	goto	u4617
  4824  015F  0BAA               	decfsz	??_main^(0+128),f
  4825  0160  295D               	goto	u4617
  4826  0161  0BAB               	decfsz	(??_main^(0+128)+1),f
  4827  0162  295D               	goto	u4617
  4828  0163  3200               	nop2
  4829                           
  4830                           ;main.c: 79: do { LATCbits.LATC7 = 0; } while(0);
  4831  0164  0140               	movlb	0	; select bank0
  4832  0165  1398               	bcf	24,7	;volatile
  4833  0166  2836               	goto	l3059
  4834  0167                     __end_of_main:	
  4835                           
  4836                           	psect	text1
  4837  0457                     __ptext1:	
  4838 ;; *************** function _printf *****************
  4839 ;; Defined at:
  4840 ;;		line 464 in file "C:\Program Files (x86)\Microchip\xc8\v1.45\sources\common\doprnt.c"
  4841 ;; Parameters:    Size  Location     Type
  4842 ;;  f               2   41[BANK0 ] PTR const unsigned char 
  4843 ;;		 -> STR_2(22), STR_1(23), 
  4844 ;; Auto vars:     Size  Location     Type
  4845 ;;  tmpval          4    0        struct .
  4846 ;;  val             2    7[BANK1 ] unsigned int 
  4847 ;;  cp              2    0        PTR const unsigned char 
  4848 ;;  len             2    0        unsigned int 
  4849 ;;  c               1    9[BANK1 ] char 
  4850 ;;  prec            1    6[BANK1 ] char 
  4851 ;;  flag            1    5[BANK1 ] unsigned char 
  4852 ;;  ap              1    4[BANK1 ] PTR void [1]
  4853 ;;		 -> ?i1_printf(2), ?_printf(2), 
  4854 ;; Return value:  Size  Location     Type
  4855 ;;                  2   41[BANK0 ] int 
  4856 ;; Registers used:
  4857 ;;		wreg, fsr0l, fsr0h, fsr1l, fsr1h, status,2, status,0, pclath, cstack
  4858 ;; Tracked objects:
  4859 ;;		On entry : 0/0
  4860 ;;		On exit  : 0/0
  4861 ;;		Unchanged: 0/0
  4862 ;; Data sizes:     COMMON   BANK0   BANK1   BANK2   BANK3   BANK4   BANK5   BANK6   BANK7   BANK8   BANK9  BANK10  BANK1
      +1  BANK12  BANK13  BANK14  BANK15  BANK16  BANK17  BANK18  BANK19  BANK20  BANK21  BANK22  BANK23  BANK24  BANK25  BANK2
      +6  BANK27  BANK28  BANK29  BANK30  BANK31  BANK32  BANK33  BANK34  BANK35  BANK36  BANK37  BANK38  BANK39  BANK40  BANK4
      +1  BANK42  BANK43  BANK44  BANK45  BANK46  BANK47  BANK48  BANK49  BANK50
  4863 ;;      Params:         0       2       0       0       0       0       0       0       0       0       0       0       
      +0       0       0       0       0       0       0       0       0       0       0       0       0       0       0       
      +0       0       0       0       0       0       0       0       0       0       0       0       0       0       0       
      +0       0       0       0       0       0       0       0       0       0
  4864 ;;      Locals:         0       0       6       0       0       0       0       0       0       0       0       0       
      +0       0       0       0       0       0       0       0       0       0       0       0       0       0       0       
      +0       0       0       0       0       0       0       0       0       0       0       0       0       0       0       
      +0       0       0       0       0       0       0       0       0       0
  4865 ;;      Temps:          0       0       4       0       0       0       0       0       0       0       0       0       
      +0       0       0       0       0       0       0       0       0       0       0       0       0       0       0       
      +0       0       0       0       0       0       0       0       0       0       0       0       0       0       0       
      +0       0       0       0       0       0       0       0       0       0
  4866 ;;      Totals:         0       2      10       0       0       0       0       0       0       0       0       0       
      +0       0       0       0       0       0       0       0       0       0       0       0       0       0       0       
      +0       0       0       0       0       0       0       0       0       0       0       0       0       0       0       
      +0       0       0       0       0       0       0       0       0       0
  4867 ;;Total ram usage:       12 bytes
  4868 ;; Hardware stack levels used:    1
  4869 ;; Hardware stack levels required when called:    7
  4870 ;; This function calls:
  4871 ;;		___lwdiv
  4872 ;;		___lwmod
  4873 ;;		_putch
  4874 ;; This function is called by:
  4875 ;;		_main
  4876 ;; This function uses a non-reentrant model
  4877 ;;
  4878                           
  4879                           
  4880                           ;psect for function _printf
  4881  0457                     _printf:	
  4882                           
  4883                           ;doprnt.c: 466: va_list ap;
  4884                           ;doprnt.c: 499: signed char c;
  4885                           ;doprnt.c: 506: signed char prec;
  4886                           ;doprnt.c: 508: unsigned char flag;
  4887                           ;doprnt.c: 523: union {
  4888                           ;doprnt.c: 524: unsigned long vd;
  4889                           ;doprnt.c: 525: double integ;
  4890                           ;doprnt.c: 526: } tmpval;
  4891                           ;doprnt.c: 528: unsigned int val;
  4892                           ;doprnt.c: 529: unsigned len;
  4893                           ;doprnt.c: 530: const char * cp;
  4894                           ;doprnt.c: 533: *ap = __va_start();
  4895                           
  4896                           ;incstack = 0
  4897                           ; Regs used in _printf: [wreg-fsr1h+status,2+status,0+pclath+cstack]
  4898  0457  304B               	movlw	(low ((?_printf| 0+2)))& (0+255)
  4899  0458  0141               	movlb	1	; select bank1
  4900  0459  00A0               	movwf	??_printf^(0+128)
  4901  045A  0820               	movf	??_printf^(0+128),w
  4902  045B  00A4               	movwf	printf@ap^(0+128)
  4903  045C                     l2887:	
  4904                           ;doprnt.c: 536: while(c = *f++) {
  4905                           
  4906  045C  0140               	movlb	0	; select bank0
  4907  045D  084A               	movf	printf@f+1,w
  4908  045E  0141               	movlb	1	; select bank1
  4909  045F  00A1               	movwf	(??_printf^(0+128)+1)
  4910  0460  0140               	movlb	0	; select bank0
  4911  0461  0849               	movf	printf@f,w
  4912  0462  0141               	movlb	1	; select bank1
  4913  0463  00A0               	movwf	??_printf^(0+128)
  4914  0464  0140               	movlb	0	; select bank0
  4915  0465  0AC9               	incf	printf@f,f
  4916  0466  1903               	skipnz
  4917  0467  0ACA               	incf	printf@f+1,f
  4918  0468  0141               	movlb	1	; select bank1
  4919  0469  0820               	movf	??_printf^(0+128),w
  4920  046A  0084               	movwf	4
  4921  046B  0821               	movf	(??_printf+1)^(0+128),w
  4922  046C  0085               	movwf	5
  4923  046D  0800               	movf	0,w	;code access
  4924  046E  00A2               	movwf	(??_printf+2)^(0+128)
  4925  046F  0822               	movf	(??_printf+2)^(0+128),w
  4926  0470  00A9               	movwf	printf@c^(0+128)
  4927  0471  0829               	movf	printf@c^(0+128),w
  4928  0472  1903               	btfsc	3,2
  4929  0473  0008               	return
  4930                           
  4931                           ;doprnt.c: 538: if(c != '%')
  4932  0474  3025               	movlw	37
  4933  0475  0629               	xorwf	printf@c^(0+128),w
  4934  0476  1903               	btfsc	3,2
  4935  0477  2C7D               	goto	l2847
  4936                           
  4937                           ;doprnt.c: 540: {
  4938                           ;doprnt.c: 541: (putch(c) );
  4939  0478  0829               	movf	printf@c^(0+128),w
  4940  0479  318D  2547  3184   	fcall	_putch
  4941                           
  4942                           ;doprnt.c: 542: continue;
  4943  047C  2C5C               	goto	l2887
  4944  047D                     l2847:	
  4945                           
  4946                           ;doprnt.c: 543: }
  4947                           ;doprnt.c: 548: flag = 0;
  4948  047D  0141               	movlb	1	; select bank1
  4949  047E  01A5               	clrf	printf@flag^(0+128)
  4950                           
  4951                           ;doprnt.c: 822: }
  4952                           
  4953                           ;doprnt.c: 813: continue;
  4954                           
  4955                           ;doprnt.c: 802: default:
  4956                           
  4957                           ;doprnt.c: 698: case 'i':
  4958                           ;doprnt.c: 699: break;
  4959                           
  4960                           ;doprnt.c: 697: case 'd':
  4961                           
  4962                           ;doprnt.c: 638: goto alldone;
  4963                           
  4964                           ;doprnt.c: 637: case 0:
  4965                           
  4966                           ;doprnt.c: 635: switch(c = *f++) {
  4967  047F  0140               	movlb	0	; select bank0
  4968  0480  084A               	movf	printf@f+1,w
  4969  0481  0141               	movlb	1	; select bank1
  4970  0482  00A1               	movwf	(??_printf^(0+128)+1)
  4971  0483  0140               	movlb	0	; select bank0
  4972  0484  0849               	movf	printf@f,w
  4973  0485  0141               	movlb	1	; select bank1
  4974  0486  00A0               	movwf	??_printf^(0+128)
  4975  0487  0140               	movlb	0	; select bank0
  4976  0488  0AC9               	incf	printf@f,f
  4977  0489  1903               	skipnz
  4978  048A  0ACA               	incf	printf@f+1,f
  4979  048B  0141               	movlb	1	; select bank1
  4980  048C  0820               	movf	??_printf^(0+128),w
  4981  048D  0084               	movwf	4
  4982  048E  0821               	movf	(??_printf+1)^(0+128),w
  4983  048F  0085               	movwf	5
  4984  0490  0800               	movf	0,w	;code access
  4985  0491  00A9               	movwf	printf@c^(0+128)
  4986                           
  4987                           ; Switch size 1, requested type "space"
  4988                           ; Number of cases is 3, Range of values is 0 to 105
  4989                           ; switch strategies available:
  4990                           ; Name         Instructions Cycles
  4991                           ; simple_byte           10     6 (average)
  4992                           ; direct_byte          218     6 (fixed)
  4993                           ; jumptable            260     6 (fixed)
  4994                           ;	Chosen strategy is simple_byte
  4995  0492  3A00               	xorlw	0	; case 0
  4996  0493  1903               	skipnz
  4997  0494  2D21               	goto	l507
  4998  0495  3A64               	xorlw	100	; case 100
  4999  0496  1903               	skipnz
  5000  0497  2C9C               	goto	l2853
  5001  0498  3A0D               	xorlw	13	; case 105
  5002  0499  1903               	skipnz
  5003  049A  2C9C               	goto	l2853
  5004  049B  2C5C               	goto	l2887
  5005  049C                     l2853:	
  5006                           
  5007                           ;doprnt.c: 1253: {
  5008                           ;doprnt.c: 1259: val = (int)(*(int *)__va_arg((*(int **)ap), (int)0));
  5009  049C  0824               	movf	printf@ap^(0+128),w
  5010  049D  0086               	movwf	6
  5011  049E  0187               	clrf	7
  5012  049F  3F40               	moviw [0]fsr1
  5013  04A0  00A7               	movwf	printf@val^(0+128)
  5014  04A1  3F41               	moviw [1]fsr1
  5015  04A2  00A8               	movwf	(printf@val+1)^(0+128)
  5016  04A3  3002               	movlw	2
  5017  04A4  00A0               	movwf	??_printf^(0+128)
  5018  04A5  0820               	movf	??_printf^(0+128),w
  5019  04A6  07A4               	addwf	printf@ap^(0+128),f
  5020                           
  5021                           ;doprnt.c: 1261: if((int)val < 0) {
  5022  04A7  1FA8               	btfss	(printf@val+1)^(0+128),7
  5023  04A8  2CB2               	goto	l2863
  5024                           
  5025                           ;doprnt.c: 1262: flag |= 0x03;
  5026  04A9  3003               	movlw	3
  5027  04AA  00A0               	movwf	??_printf^(0+128)
  5028  04AB  0820               	movf	??_printf^(0+128),w
  5029  04AC  04A5               	iorwf	printf@flag^(0+128),f
  5030                           
  5031                           ;doprnt.c: 1263: val = -val;
  5032  04AD  09A7               	comf	printf@val^(0+128),f
  5033  04AE  09A8               	comf	(printf@val+1)^(0+128),f
  5034  04AF  0AA7               	incf	printf@val^(0+128),f
  5035  04B0  1903               	skipnz
  5036  04B1  0AA8               	incf	(printf@val+1)^(0+128),f
  5037  04B2                     l2863:	
  5038                           
  5039                           ;doprnt.c: 1264: }
  5040                           ;doprnt.c: 1266: }
  5041                           ;doprnt.c: 1305: for(c = 1 ; c != sizeof dpowers/sizeof dpowers[0] ; c++)
  5042  04B2  01A9               	clrf	printf@c^(0+128)
  5043  04B3  0AA9               	incf	printf@c^(0+128),f
  5044  04B4  3005               	movlw	5
  5045  04B5  0629               	xorwf	printf@c^(0+128),w
  5046  04B6  1903               	btfsc	3,2
  5047  04B7  2CD7               	goto	l2875
  5048  04B8                     l2869:	
  5049                           
  5050                           ;doprnt.c: 1306: if(val < dpowers[c])
  5051  04B8  0829               	movf	printf@c^(0+128),w
  5052  04B9  00A0               	movwf	??_printf^(0+128)
  5053  04BA  01A1               	clrf	(??_printf^(0+128)+1)
  5054  04BB  35A0               	lslf	??_printf^(0+128),f
  5055  04BC  0DA1               	rlf	(??_printf^(0+128)+1),f
  5056  04BD  302D               	movlw	low (_dpowers| (0+32768))
  5057  04BE  0720               	addwf	??_printf^(0+128),w
  5058  04BF  0084               	movwf	4
  5059  04C0  3090               	movlw	high (_dpowers| (0+32768))
  5060  04C1  3D21               	addwfc	(??_printf+1)^(0+128),w
  5061  04C2  0085               	movwf	5
  5062  04C3  3F00               	moviw [0]fsr0
  5063  04C4  00A2               	movwf	(??_printf+2)^(0+128)
  5064  04C5  3F01               	moviw [1]fsr0
  5065  04C6  00A3               	movwf	((??_printf+2)^(0+128)+1)
  5066  04C7  0823               	movf	(??_printf+3)^(0+128),w
  5067  04C8  0228               	subwf	(printf@val+1)^(0+128),w
  5068  04C9  1D03               	skipz
  5069  04CA  2CCD               	goto	u3975
  5070  04CB  0822               	movf	(??_printf+2)^(0+128),w
  5071  04CC  0227               	subwf	printf@val^(0+128),w
  5072  04CD                     u3975:	
  5073  04CD  1C03               	btfss	3,0
  5074  04CE  2CD7               	goto	l2875
  5075                           
  5076                           ;doprnt.c: 1307: break;
  5077  04CF  3001               	movlw	1
  5078  04D0  00A0               	movwf	??_printf^(0+128)
  5079  04D1  0820               	movf	??_printf^(0+128),w
  5080  04D2  07A9               	addwf	printf@c^(0+128),f
  5081  04D3  3005               	movlw	5
  5082  04D4  0629               	xorwf	printf@c^(0+128),w
  5083  04D5  1D03               	btfss	3,2
  5084  04D6  2CB8               	goto	l2869
  5085  04D7                     l2875:	
  5086                           
  5087                           ;doprnt.c: 1422: {
  5088                           ;doprnt.c: 1438: if(flag & 0x03)
  5089  04D7  0825               	movf	printf@flag^(0+128),w
  5090  04D8  3903               	andlw	3
  5091  04D9  1903               	btfsc	3,2
  5092  04DA  2CDF               	goto	l2879
  5093                           
  5094                           ;doprnt.c: 1439: (putch('-') );
  5095  04DB  302D               	movlw	45
  5096  04DC  318D  2547  3184   	fcall	_putch
  5097  04DF                     l2879:	
  5098                           
  5099                           ;doprnt.c: 1469: }
  5100                           ;doprnt.c: 1472: prec = c;
  5101  04DF  0141               	movlb	1	; select bank1
  5102  04E0  0829               	movf	printf@c^(0+128),w
  5103  04E1  00A0               	movwf	??_printf^(0+128)
  5104  04E2  0820               	movf	??_printf^(0+128),w
  5105  04E3  00A6               	movwf	printf@prec^(0+128)
  5106  04E4                     l2885:	
  5107                           ;doprnt.c: 1474: while(prec--) {
  5108                           
  5109  04E4  30FF               	movlw	255
  5110  04E5  0141               	movlb	1	; select bank1
  5111  04E6  00A0               	movwf	??_printf^(0+128)
  5112  04E7  0820               	movf	??_printf^(0+128),w
  5113  04E8  07A6               	addwf	printf@prec^(0+128),f
  5114  04E9  0A26               	incf	printf@prec^(0+128),w
  5115  04EA  1903               	btfsc	3,2
  5116  04EB  2C5C               	goto	l2887
  5117                           
  5118                           ;doprnt.c: 1478: {
  5119                           ;doprnt.c: 1489: c = (val / dpowers[prec]) % 10 + '0';
  5120  04EC  300A               	movlw	10
  5121  04ED  0140               	movlb	0	; select bank0
  5122  04EE  00C3               	movwf	___lwmod@divisor
  5123  04EF  3000               	movlw	0
  5124  04F0  00C4               	movwf	___lwmod@divisor+1
  5125  04F1  0141               	movlb	1	; select bank1
  5126  04F2  0826               	movf	printf@prec^(0+128),w
  5127  04F3  00A0               	movwf	??_printf^(0+128)
  5128  04F4  01A1               	clrf	(??_printf^(0+128)+1)
  5129  04F5  35A0               	lslf	??_printf^(0+128),f
  5130  04F6  0DA1               	rlf	(??_printf^(0+128)+1),f
  5131  04F7  302D               	movlw	low (_dpowers| (0+32768))
  5132  04F8  0720               	addwf	??_printf^(0+128),w
  5133  04F9  0084               	movwf	4
  5134  04FA  3090               	movlw	high (_dpowers| (0+32768))
  5135  04FB  3D21               	addwfc	(??_printf+1)^(0+128),w
  5136  04FC  0085               	movwf	5
  5137  04FD  3F00               	moviw [0]fsr0
  5138  04FE  0140               	movlb	0	; select bank0
  5139  04FF  00BB               	movwf	___lwdiv@divisor
  5140  0500  3F01               	moviw [1]fsr0
  5141  0501  00BC               	movwf	___lwdiv@divisor+1
  5142  0502  0141               	movlb	1	; select bank1
  5143  0503  0828               	movf	(printf@val+1)^(0+128),w
  5144  0504  0140               	movlb	0	; select bank0
  5145  0505  00BE               	movwf	___lwdiv@dividend+1
  5146  0506  0141               	movlb	1	; select bank1
  5147  0507  0827               	movf	printf@val^(0+128),w
  5148  0508  0140               	movlb	0	; select bank0
  5149  0509  00BD               	movwf	___lwdiv@dividend
  5150  050A  318E  263D  3184   	fcall	___lwdiv
  5151  050D  0140               	movlb	0	; select bank0
  5152  050E  083C               	movf	?___lwdiv+1,w
  5153  050F  00C6               	movwf	___lwmod@dividend+1
  5154  0510  083B               	movf	?___lwdiv,w
  5155  0511  00C5               	movwf	___lwmod@dividend
  5156  0512  3187  27CE  3184   	fcall	___lwmod
  5157  0515  0140               	movlb	0	; select bank0
  5158  0516  0843               	movf	?___lwmod,w
  5159  0517  3E30               	addlw	48
  5160  0518  0141               	movlb	1	; select bank1
  5161  0519  00A2               	movwf	(??_printf+2)^(0+128)
  5162  051A  0822               	movf	(??_printf+2)^(0+128),w
  5163  051B  00A9               	movwf	printf@c^(0+128)
  5164                           
  5165                           ;doprnt.c: 1523: }
  5166                           ;doprnt.c: 1524: (putch(c) );
  5167  051C  0829               	movf	printf@c^(0+128),w
  5168  051D  318D  2547  3184   	fcall	_putch
  5169  0520  2CE4               	goto	l2885
  5170  0521                     l507:	
  5171                           ;doprnt.c: 1540: return 0;
  5172                           ;	Return value of _printf is never used
  5173                           
  5174                           ;doprnt.c: 1525: }
  5175                           ;doprnt.c: 1533: }
  5176                           ;doprnt.c: 1535: alldone:
  5177                           
  5178  0521  0008               	return
  5179  0522                     __end_of_printf:	
  5180                           
  5181                           	psect	text2
  5182  0D47                     __ptext2:	
  5183 ;; *************** function _putch *****************
  5184 ;; Defined at:
  5185 ;;		line 110 in file "mcc_generated_files/eusart.c"
  5186 ;; Parameters:    Size  Location     Type
  5187 ;;  txData          1    wreg     unsigned char 
  5188 ;; Auto vars:     Size  Location     Type
  5189 ;;  txData          1   28[BANK0 ] unsigned char 
  5190 ;; Return value:  Size  Location     Type
  5191 ;;                  1    wreg      void 
  5192 ;; Registers used:
  5193 ;;		wreg, status,2, status,0, pclath, cstack
  5194 ;; Tracked objects:
  5195 ;;		On entry : 0/0
  5196 ;;		On exit  : 0/0
  5197 ;;		Unchanged: 0/0
  5198 ;; Data sizes:     COMMON   BANK0   BANK1   BANK2   BANK3   BANK4   BANK5   BANK6   BANK7   BANK8   BANK9  BANK10  BANK1
      +1  BANK12  BANK13  BANK14  BANK15  BANK16  BANK17  BANK18  BANK19  BANK20  BANK21  BANK22  BANK23  BANK24  BANK25  BANK2
      +6  BANK27  BANK28  BANK29  BANK30  BANK31  BANK32  BANK33  BANK34  BANK35  BANK36  BANK37  BANK38  BANK39  BANK40  BANK4
      +1  BANK42  BANK43  BANK44  BANK45  BANK46  BANK47  BANK48  BANK49  BANK50
  5199 ;;      Params:         0       0       0       0       0       0       0       0       0       0       0       0       
      +0       0       0       0       0       0       0       0       0       0       0       0       0       0       0       
      +0       0       0       0       0       0       0       0       0       0       0       0       0       0       0       
      +0       0       0       0       0       0       0       0       0       0
  5200 ;;      Locals:         0       1       0       0       0       0       0       0       0       0       0       0       
      +0       0       0       0       0       0       0       0       0       0       0       0       0       0       0       
      +0       0       0       0       0       0       0       0       0       0       0       0       0       0       0       
      +0       0       0       0       0       0       0       0       0       0
  5201 ;;      Temps:          0       0       0       0       0       0       0       0       0       0       0       0       
      +0       0       0       0       0       0       0       0       0       0       0       0       0       0       0       
      +0       0       0       0       0       0       0       0       0       0       0       0       0       0       0       
      +0       0       0       0       0       0       0       0       0       0
  5202 ;;      Totals:         0       1       0       0       0       0       0       0       0       0       0       0       
      +0       0       0       0       0       0       0       0       0       0       0       0       0       0       0       
      +0       0       0       0       0       0       0       0       0       0       0       0       0       0       0       
      +0       0       0       0       0       0       0       0       0       0
  5203 ;;Total ram usage:        1 bytes
  5204 ;; Hardware stack levels used:    1
  5205 ;; Hardware stack levels required when called:    6
  5206 ;; This function calls:
  5207 ;;		_EUSART_Write
  5208 ;; This function is called by:
  5209 ;;		_printf
  5210 ;; This function uses a non-reentrant model
  5211 ;;
  5212                           
  5213                           
  5214                           ;psect for function _putch
  5215  0D47                     _putch:	
  5216                           
  5217                           ;incstack = 0
  5218                           ; Regs used in _putch: [wreg+status,2+status,0+pclath+cstack]
  5219                           ;putch@txData stored from wreg
  5220  0D47  0140               	movlb	0	; select bank0
  5221  0D48  00BC               	movwf	putch@txData
  5222                           
  5223                           ;eusart.c: 112: EUSART_Write(txData);
  5224  0D49  083C               	movf	putch@txData,w
  5225  0D4A  318D  256F         	fcall	_EUSART_Write
  5226  0D4C  0008               	return
  5227  0D4D                     __end_of_putch:	
  5228                           
  5229                           	psect	text3
  5230  0D6F                     __ptext3:	
  5231 ;; *************** function _EUSART_Write *****************
  5232 ;; Defined at:
  5233 ;;		line 96 in file "mcc_generated_files/eusart.c"
  5234 ;; Parameters:    Size  Location     Type
  5235 ;;  txData          1    wreg     unsigned char 
  5236 ;; Auto vars:     Size  Location     Type
  5237 ;;  txData          1   27[BANK0 ] unsigned char 
  5238 ;; Return value:  Size  Location     Type
  5239 ;;                  1    wreg      void 
  5240 ;; Registers used:
  5241 ;;		wreg
  5242 ;; Tracked objects:
  5243 ;;		On entry : 0/0
  5244 ;;		On exit  : 0/0
  5245 ;;		Unchanged: 0/0
  5246 ;; Data sizes:     COMMON   BANK0   BANK1   BANK2   BANK3   BANK4   BANK5   BANK6   BANK7   BANK8   BANK9  BANK10  BANK1
      +1  BANK12  BANK13  BANK14  BANK15  BANK16  BANK17  BANK18  BANK19  BANK20  BANK21  BANK22  BANK23  BANK24  BANK25  BANK2
      +6  BANK27  BANK28  BANK29  BANK30  BANK31  BANK32  BANK33  BANK34  BANK35  BANK36  BANK37  BANK38  BANK39  BANK40  BANK4
      +1  BANK42  BANK43  BANK44  BANK45  BANK46  BANK47  BANK48  BANK49  BANK50
  5247 ;;      Params:         0       0       0       0       0       0       0       0       0       0       0       0       
      +0       0       0       0       0       0       0       0       0       0       0       0       0       0       0       
      +0       0       0       0       0       0       0       0       0       0       0       0       0       0       0       
      +0       0       0       0       0       0       0       0       0       0
  5248 ;;      Locals:         0       1       0       0       0       0       0       0       0       0       0       0       
      +0       0       0       0       0       0       0       0       0       0       0       0       0       0       0       
      +0       0       0       0       0       0       0       0       0       0       0       0       0       0       0       
      +0       0       0       0       0       0       0       0       0       0
  5249 ;;      Temps:          0       0       0       0       0       0       0       0       0       0       0       0       
      +0       0       0       0       0       0       0       0       0       0       0       0       0       0       0       
      +0       0       0       0       0       0       0       0       0       0       0       0       0       0       0       
      +0       0       0       0       0       0       0       0       0       0
  5250 ;;      Totals:         0       1       0       0       0       0       0       0       0       0       0       0       
      +0       0       0       0       0       0       0       0       0       0       0       0       0       0       0       
      +0       0       0       0       0       0       0       0       0       0       0       0       0       0       0       
      +0       0       0       0       0       0       0       0       0       0
  5251 ;;Total ram usage:        1 bytes
  5252 ;; Hardware stack levels used:    1
  5253 ;; Hardware stack levels required when called:    5
  5254 ;; This function calls:
  5255 ;;		Nothing
  5256 ;; This function is called by:
  5257 ;;		_putch
  5258 ;; This function uses a non-reentrant model
  5259 ;;
  5260                           
  5261                           
  5262                           ;psect for function _EUSART_Write
  5263  0D6F                     _EUSART_Write:	
  5264                           
  5265                           ;incstack = 0
  5266                           ; Regs used in _EUSART_Write: [wreg]
  5267                           ;EUSART_Write@txData stored from wreg
  5268  0D6F  0140               	movlb	0	; select bank0
  5269  0D70  00BB               	movwf	EUSART_Write@txData
  5270  0D71                     l395:	
  5271                           ;eusart.c: 99: {
  5272                           
  5273                           ;eusart.c: 98: while(0 == PIR3bits.TXIF)
  5274                           
  5275  0D71  014E               	movlb	14	; select bank14
  5276  0D72  1E0F               	btfss	15,4	;volatile
  5277  0D73  2D71               	goto	l395
  5278                           
  5279                           ;eusart.c: 100: }
  5280                           ;eusart.c: 102: TX1REG = txData;
  5281  0D74  0140               	movlb	0	; select bank0
  5282  0D75  083B               	movf	EUSART_Write@txData,w
  5283  0D76  0142               	movlb	2	; select bank2
  5284  0D77  009A               	movwf	26	;volatile
  5285  0D78  0008               	return
  5286  0D79                     __end_of_EUSART_Write:	
  5287                           
  5288                           	psect	text4
  5289  07CE                     __ptext4:	
  5290 ;; *************** function ___lwmod *****************
  5291 ;; Defined at:
  5292 ;;		line 6 in file "C:\Program Files (x86)\Microchip\xc8\v1.45\sources\common\lwmod.c"
  5293 ;; Parameters:    Size  Location     Type
  5294 ;;  divisor         2   35[BANK0 ] unsigned int 
  5295 ;;  dividend        2   37[BANK0 ] unsigned int 
  5296 ;; Auto vars:     Size  Location     Type
  5297 ;;  counter         1   40[BANK0 ] unsigned char 
  5298 ;; Return value:  Size  Location     Type
  5299 ;;                  2   35[BANK0 ] unsigned int 
  5300 ;; Registers used:
  5301 ;;		wreg, status,2, status,0
  5302 ;; Tracked objects:
  5303 ;;		On entry : 0/0
  5304 ;;		On exit  : 0/0
  5305 ;;		Unchanged: 0/0
  5306 ;; Data sizes:     COMMON   BANK0   BANK1   BANK2   BANK3   BANK4   BANK5   BANK6   BANK7   BANK8   BANK9  BANK10  BANK1
      +1  BANK12  BANK13  BANK14  BANK15  BANK16  BANK17  BANK18  BANK19  BANK20  BANK21  BANK22  BANK23  BANK24  BANK25  BANK2
      +6  BANK27  BANK28  BANK29  BANK30  BANK31  BANK32  BANK33  BANK34  BANK35  BANK36  BANK37  BANK38  BANK39  BANK40  BANK4
      +1  BANK42  BANK43  BANK44  BANK45  BANK46  BANK47  BANK48  BANK49  BANK50
  5307 ;;      Params:         0       4       0       0       0       0       0       0       0       0       0       0       
      +0       0       0       0       0       0       0       0       0       0       0       0       0       0       0       
      +0       0       0       0       0       0       0       0       0       0       0       0       0       0       0       
      +0       0       0       0       0       0       0       0       0       0
  5308 ;;      Locals:         0       1       0       0       0       0       0       0       0       0       0       0       
      +0       0       0       0       0       0       0       0       0       0       0       0       0       0       0       
      +0       0       0       0       0       0       0       0       0       0       0       0       0       0       0       
      +0       0       0       0       0       0       0       0       0       0
  5309 ;;      Temps:          0       1       0       0       0       0       0       0       0       0       0       0       
      +0       0       0       0       0       0       0       0       0       0       0       0       0       0       0       
      +0       0       0       0       0       0       0       0       0       0       0       0       0       0       0       
      +0       0       0       0       0       0       0       0       0       0
  5310 ;;      Totals:         0       6       0       0       0       0       0       0       0       0       0       0       
      +0       0       0       0       0       0       0       0       0       0       0       0       0       0       0       
      +0       0       0       0       0       0       0       0       0       0       0       0       0       0       0       
      +0       0       0       0       0       0       0       0       0       0
  5311 ;;Total ram usage:        6 bytes
  5312 ;; Hardware stack levels used:    1
  5313 ;; Hardware stack levels required when called:    5
  5314 ;; This function calls:
  5315 ;;		Nothing
  5316 ;; This function is called by:
  5317 ;;		_printf
  5318 ;; This function uses a non-reentrant model
  5319 ;;
  5320                           
  5321                           
  5322                           ;psect for function ___lwmod
  5323  07CE                     ___lwmod:	
  5324                           
  5325                           ;incstack = 0
  5326                           ; Regs used in ___lwmod: [wreg+status,2+status,0]
  5327  07CE  0140               	movlb	0	; select bank0
  5328  07CF  0843               	movf	___lwmod@divisor,w
  5329  07D0  0444               	iorwf	___lwmod@divisor+1,w
  5330  07D1  1903               	btfsc	3,2
  5331  07D2  2FF6               	goto	l2837
  5332  07D3  01C8               	clrf	___lwmod@counter
  5333  07D4  0AC8               	incf	___lwmod@counter,f
  5334  07D5                     l2827:	
  5335  07D5  1BC4               	btfsc	___lwmod@divisor+1,7
  5336  07D6  2FE1               	goto	l2829
  5337  07D7  3001               	movlw	1
  5338  07D8                     u3895:	
  5339  07D8  35C3               	lslf	___lwmod@divisor,f
  5340  07D9  0DC4               	rlf	___lwmod@divisor+1,f
  5341  07DA  0B89               	decfsz	9,f
  5342  07DB  2FD8               	goto	u3895
  5343  07DC  3001               	movlw	1
  5344  07DD  00C7               	movwf	??___lwmod
  5345  07DE  0847               	movf	??___lwmod,w
  5346  07DF  07C8               	addwf	___lwmod@counter,f
  5347  07E0  2FD5               	goto	l2827
  5348  07E1                     l2829:	
  5349  07E1  0844               	movf	___lwmod@divisor+1,w
  5350  07E2  0246               	subwf	___lwmod@dividend+1,w
  5351  07E3  1D03               	skipz
  5352  07E4  2FE7               	goto	u3915
  5353  07E5  0843               	movf	___lwmod@divisor,w
  5354  07E6  0245               	subwf	___lwmod@dividend,w
  5355  07E7                     u3915:	
  5356  07E7  1C03               	skipc
  5357  07E8  2FED               	goto	l2833
  5358  07E9  0843               	movf	___lwmod@divisor,w
  5359  07EA  02C5               	subwf	___lwmod@dividend,f
  5360  07EB  0844               	movf	___lwmod@divisor+1,w
  5361  07EC  3BC6               	subwfb	___lwmod@dividend+1,f
  5362  07ED                     l2833:	
  5363  07ED  3001               	movlw	1
  5364  07EE                     u3925:	
  5365  07EE  36C4               	lsrf	___lwmod@divisor+1,f
  5366  07EF  0CC3               	rrf	___lwmod@divisor,f
  5367  07F0  0B89               	decfsz	9,f
  5368  07F1  2FEE               	goto	u3925
  5369  07F2  3001               	movlw	1
  5370  07F3  02C8               	subwf	___lwmod@counter,f
  5371  07F4  1D03               	btfss	3,2
  5372  07F5  2FE1               	goto	l2829
  5373  07F6                     l2837:	
  5374  07F6  0846               	movf	___lwmod@dividend+1,w
  5375  07F7  00C4               	movwf	?___lwmod+1
  5376  07F8  0845               	movf	___lwmod@dividend,w
  5377  07F9  00C3               	movwf	?___lwmod
  5378  07FA  0008               	return
  5379  07FB                     __end_of___lwmod:	
  5380                           
  5381                           	psect	text5
  5382  0E3D                     __ptext5:	
  5383 ;; *************** function ___lwdiv *****************
  5384 ;; Defined at:
  5385 ;;		line 6 in file "C:\Program Files (x86)\Microchip\xc8\v1.45\sources\common\lwdiv.c"
  5386 ;; Parameters:    Size  Location     Type
  5387 ;;  divisor         2   27[BANK0 ] unsigned int 
  5388 ;;  dividend        2   29[BANK0 ] unsigned int 
  5389 ;; Auto vars:     Size  Location     Type
  5390 ;;  quotient        2   33[BANK0 ] unsigned int 
  5391 ;;  counter         1   32[BANK0 ] unsigned char 
  5392 ;; Return value:  Size  Location     Type
  5393 ;;                  2   27[BANK0 ] unsigned int 
  5394 ;; Registers used:
  5395 ;;		wreg, status,2, status,0
  5396 ;; Tracked objects:
  5397 ;;		On entry : 0/0
  5398 ;;		On exit  : 0/0
  5399 ;;		Unchanged: 0/0
  5400 ;; Data sizes:     COMMON   BANK0   BANK1   BANK2   BANK3   BANK4   BANK5   BANK6   BANK7   BANK8   BANK9  BANK10  BANK1
      +1  BANK12  BANK13  BANK14  BANK15  BANK16  BANK17  BANK18  BANK19  BANK20  BANK21  BANK22  BANK23  BANK24  BANK25  BANK2
      +6  BANK27  BANK28  BANK29  BANK30  BANK31  BANK32  BANK33  BANK34  BANK35  BANK36  BANK37  BANK38  BANK39  BANK40  BANK4
      +1  BANK42  BANK43  BANK44  BANK45  BANK46  BANK47  BANK48  BANK49  BANK50
  5401 ;;      Params:         0       4       0       0       0       0       0       0       0       0       0       0       
      +0       0       0       0       0       0       0       0       0       0       0       0       0       0       0       
      +0       0       0       0       0       0       0       0       0       0       0       0       0       0       0       
      +0       0       0       0       0       0       0       0       0       0
  5402 ;;      Locals:         0       3       0       0       0       0       0       0       0       0       0       0       
      +0       0       0       0       0       0       0       0       0       0       0       0       0       0       0       
      +0       0       0       0       0       0       0       0       0       0       0       0       0       0       0       
      +0       0       0       0       0       0       0       0       0       0
  5403 ;;      Temps:          0       1       0       0       0       0       0       0       0       0       0       0       
      +0       0       0       0       0       0       0       0       0       0       0       0       0       0       0       
      +0       0       0       0       0       0       0       0       0       0       0       0       0       0       0       
      +0       0       0       0       0       0       0       0       0       0
  5404 ;;      Totals:         0       8       0       0       0       0       0       0       0       0       0       0       
      +0       0       0       0       0       0       0       0       0       0       0       0       0       0       0       
      +0       0       0       0       0       0       0       0       0       0       0       0       0       0       0       
      +0       0       0       0       0       0       0       0       0       0
  5405 ;;Total ram usage:        8 bytes
  5406 ;; Hardware stack levels used:    1
  5407 ;; Hardware stack levels required when called:    5
  5408 ;; This function calls:
  5409 ;;		Nothing
  5410 ;; This function is called by:
  5411 ;;		_printf
  5412 ;; This function uses a non-reentrant model
  5413 ;;
  5414                           
  5415                           
  5416                           ;psect for function ___lwdiv
  5417  0E3D                     ___lwdiv:	
  5418                           
  5419                           ;incstack = 0
  5420                           ; Regs used in ___lwdiv: [wreg+status,2+status,0]
  5421  0E3D  0140               	movlb	0	; select bank0
  5422  0E3E  01C1               	clrf	___lwdiv@quotient
  5423  0E3F  01C2               	clrf	___lwdiv@quotient+1
  5424  0E40  083B               	movf	___lwdiv@divisor,w
  5425  0E41  043C               	iorwf	___lwdiv@divisor+1,w
  5426  0E42  1903               	btfsc	3,2
  5427  0E43  2E6D               	goto	l2815
  5428  0E44  01C0               	clrf	___lwdiv@counter
  5429  0E45  0AC0               	incf	___lwdiv@counter,f
  5430  0E46                     l2803:	
  5431  0E46  1BBC               	btfsc	___lwdiv@divisor+1,7
  5432  0E47  2E52               	goto	l2805
  5433  0E48  3001               	movlw	1
  5434  0E49                     u3825:	
  5435  0E49  35BB               	lslf	___lwdiv@divisor,f
  5436  0E4A  0DBC               	rlf	___lwdiv@divisor+1,f
  5437  0E4B  0B89               	decfsz	9,f
  5438  0E4C  2E49               	goto	u3825
  5439  0E4D  3001               	movlw	1
  5440  0E4E  00BF               	movwf	??___lwdiv
  5441  0E4F  083F               	movf	??___lwdiv,w
  5442  0E50  07C0               	addwf	___lwdiv@counter,f
  5443  0E51  2E46               	goto	l2803
  5444  0E52                     l2805:	
  5445  0E52  3001               	movlw	1
  5446  0E53                     u3845:	
  5447  0E53  35C1               	lslf	___lwdiv@quotient,f
  5448  0E54  0DC2               	rlf	___lwdiv@quotient+1,f
  5449  0E55  0B89               	decfsz	9,f
  5450  0E56  2E53               	goto	u3845
  5451  0E57  083C               	movf	___lwdiv@divisor+1,w
  5452  0E58  023E               	subwf	___lwdiv@dividend+1,w
  5453  0E59  1D03               	skipz
  5454  0E5A  2E5D               	goto	u3855
  5455  0E5B  083B               	movf	___lwdiv@divisor,w
  5456  0E5C  023D               	subwf	___lwdiv@dividend,w
  5457  0E5D                     u3855:	
  5458  0E5D  1C03               	skipc
  5459  0E5E  2E64               	goto	l2811
  5460  0E5F  083B               	movf	___lwdiv@divisor,w
  5461  0E60  02BD               	subwf	___lwdiv@dividend,f
  5462  0E61  083C               	movf	___lwdiv@divisor+1,w
  5463  0E62  3BBE               	subwfb	___lwdiv@dividend+1,f
  5464  0E63  1441               	bsf	___lwdiv@quotient,0
  5465  0E64                     l2811:	
  5466  0E64  3001               	movlw	1
  5467  0E65                     u3865:	
  5468  0E65  36BC               	lsrf	___lwdiv@divisor+1,f
  5469  0E66  0CBB               	rrf	___lwdiv@divisor,f
  5470  0E67  0B89               	decfsz	9,f
  5471  0E68  2E65               	goto	u3865
  5472  0E69  3001               	movlw	1
  5473  0E6A  02C0               	subwf	___lwdiv@counter,f
  5474  0E6B  1D03               	btfss	3,2
  5475  0E6C  2E52               	goto	l2805
  5476  0E6D                     l2815:	
  5477  0E6D  0842               	movf	___lwdiv@quotient+1,w
  5478  0E6E  00BC               	movwf	?___lwdiv+1
  5479  0E6F  0841               	movf	___lwdiv@quotient,w
  5480  0E70  00BB               	movwf	?___lwdiv
  5481  0E71  0008               	return
  5482  0E72                     __end_of___lwdiv:	
  5483                           
  5484                           	psect	text6
  5485  0D93                     __ptext6:	
  5486 ;; *************** function ___lwtoft *****************
  5487 ;; Defined at:
  5488 ;;		line 28 in file "C:\Program Files (x86)\Microchip\xc8\v1.45\sources\common\lwtoft.c"
  5489 ;; Parameters:    Size  Location     Type
  5490 ;;  c               2   35[BANK0 ] unsigned int 
  5491 ;; Auto vars:     Size  Location     Type
  5492 ;;		None
  5493 ;; Return value:  Size  Location     Type
  5494 ;;                  3   35[BANK0 ] float 
  5495 ;; Registers used:
  5496 ;;		wreg, status,2, status,0, pclath, cstack
  5497 ;; Tracked objects:
  5498 ;;		On entry : 0/0
  5499 ;;		On exit  : 0/0
  5500 ;;		Unchanged: 0/0
  5501 ;; Data sizes:     COMMON   BANK0   BANK1   BANK2   BANK3   BANK4   BANK5   BANK6   BANK7   BANK8   BANK9  BANK10  BANK1
      +1  BANK12  BANK13  BANK14  BANK15  BANK16  BANK17  BANK18  BANK19  BANK20  BANK21  BANK22  BANK23  BANK24  BANK25  BANK2
      +6  BANK27  BANK28  BANK29  BANK30  BANK31  BANK32  BANK33  BANK34  BANK35  BANK36  BANK37  BANK38  BANK39  BANK40  BANK4
      +1  BANK42  BANK43  BANK44  BANK45  BANK46  BANK47  BANK48  BANK49  BANK50
  5502 ;;      Params:         0       3       0       0       0       0       0       0       0       0       0       0       
      +0       0       0       0       0       0       0       0       0       0       0       0       0       0       0       
      +0       0       0       0       0       0       0       0       0       0       0       0       0       0       0       
      +0       0       0       0       0       0       0       0       0       0
  5503 ;;      Locals:         0       0       0       0       0       0       0       0       0       0       0       0       
      +0       0       0       0       0       0       0       0       0       0       0       0       0       0       0       
      +0       0       0       0       0       0       0       0       0       0       0       0       0       0       0       
      +0       0       0       0       0       0       0       0       0       0
  5504 ;;      Temps:          0       1       0       0       0       0       0       0       0       0       0       0       
      +0       0       0       0       0       0       0       0       0       0       0       0       0       0       0       
      +0       0       0       0       0       0       0       0       0       0       0       0       0       0       0       
      +0       0       0       0       0       0       0       0       0       0
  5505 ;;      Totals:         0       4       0       0       0       0       0       0       0       0       0       0       
      +0       0       0       0       0       0       0       0       0       0       0       0       0       0       0       
      +0       0       0       0       0       0       0       0       0       0       0       0       0       0       0       
      +0       0       0       0       0       0       0       0       0       0
  5506 ;;Total ram usage:        4 bytes
  5507 ;; Hardware stack levels used:    1
  5508 ;; Hardware stack levels required when called:    6
  5509 ;; This function calls:
  5510 ;;		___ftpack
  5511 ;; This function is called by:
  5512 ;;		_main
  5513 ;; This function uses a non-reentrant model
  5514 ;;
  5515                           
  5516                           
  5517                           ;psect for function ___lwtoft
  5518  0D93                     ___lwtoft:	
  5519                           
  5520                           ;incstack = 0
  5521                           ; Regs used in ___lwtoft: [wreg+status,2+status,0+pclath+cstack]
  5522  0D93  0140               	movlb	0	; select bank0
  5523  0D94  0843               	movf	___lwtoft@c,w
  5524  0D95  00BB               	movwf	___ftpack@arg
  5525  0D96  0844               	movf	___lwtoft@c+1,w
  5526  0D97  00BC               	movwf	___ftpack@arg+1
  5527  0D98  01BD               	clrf	___ftpack@arg+2
  5528  0D99  308E               	movlw	142
  5529  0D9A  00C6               	movwf	??___lwtoft
  5530  0D9B  0846               	movf	??___lwtoft,w
  5531  0D9C  00BE               	movwf	___ftpack@exp
  5532  0D9D  01BF               	clrf	___ftpack@sign
  5533  0D9E  318F  279B         	fcall	___ftpack
  5534  0DA0  0140               	movlb	0	; select bank0
  5535  0DA1  083B               	movf	?___ftpack,w
  5536  0DA2  00C3               	movwf	?___lwtoft
  5537  0DA3  083C               	movf	?___ftpack+1,w
  5538  0DA4  00C4               	movwf	?___lwtoft+1
  5539  0DA5  083D               	movf	?___ftpack+2,w
  5540  0DA6  00C5               	movwf	?___lwtoft+2
  5541  0DA7  0008               	return
  5542  0DA8                     __end_of___lwtoft:	
  5543                           
  5544                           	psect	text7
  5545  0376                     __ptext7:	
  5546 ;; *************** function ___ftmul *****************
  5547 ;; Defined at:
  5548 ;;		line 62 in file "C:\Program Files (x86)\Microchip\xc8\v1.45\sources\common\ftmul.c"
  5549 ;; Parameters:    Size  Location     Type
  5550 ;;  f1              3   35[BANK0 ] float 
  5551 ;;  f2              3   38[BANK0 ] float 
  5552 ;; Auto vars:     Size  Location     Type
  5553 ;;  f3_as_produc    3    1[BANK1 ] unsigned um
  5554 ;;  sign            1    5[BANK1 ] unsigned char 
  5555 ;;  cntr            1    4[BANK1 ] unsigned char 
  5556 ;;  exp             1    0[BANK1 ] unsigned char 
  5557 ;; Return value:  Size  Location     Type
  5558 ;;                  3   35[BANK0 ] float 
  5559 ;; Registers used:
  5560 ;;		wreg, status,2, status,0, pclath, cstack
  5561 ;; Tracked objects:
  5562 ;;		On entry : 0/0
  5563 ;;		On exit  : 0/0
  5564 ;;		Unchanged: 0/0
  5565 ;; Data sizes:     COMMON   BANK0   BANK1   BANK2   BANK3   BANK4   BANK5   BANK6   BANK7   BANK8   BANK9  BANK10  BANK1
      +1  BANK12  BANK13  BANK14  BANK15  BANK16  BANK17  BANK18  BANK19  BANK20  BANK21  BANK22  BANK23  BANK24  BANK25  BANK2
      +6  BANK27  BANK28  BANK29  BANK30  BANK31  BANK32  BANK33  BANK34  BANK35  BANK36  BANK37  BANK38  BANK39  BANK40  BANK4
      +1  BANK42  BANK43  BANK44  BANK45  BANK46  BANK47  BANK48  BANK49  BANK50
  5566 ;;      Params:         0       6       0       0       0       0       0       0       0       0       0       0       
      +0       0       0       0       0       0       0       0       0       0       0       0       0       0       0       
      +0       0       0       0       0       0       0       0       0       0       0       0       0       0       0       
      +0       0       0       0       0       0       0       0       0       0
  5567 ;;      Locals:         0       0       6       0       0       0       0       0       0       0       0       0       
      +0       0       0       0       0       0       0       0       0       0       0       0       0       0       0       
      +0       0       0       0       0       0       0       0       0       0       0       0       0       0       0       
      +0       0       0       0       0       0       0       0       0       0
  5568 ;;      Temps:          0       4       0       0       0       0       0       0       0       0       0       0       
      +0       0       0       0       0       0       0       0       0       0       0       0       0       0       0       
      +0       0       0       0       0       0       0       0       0       0       0       0       0       0       0       
      +0       0       0       0       0       0       0       0       0       0
  5569 ;;      Totals:         0      10       6       0       0       0       0       0       0       0       0       0       
      +0       0       0       0       0       0       0       0       0       0       0       0       0       0       0       
      +0       0       0       0       0       0       0       0       0       0       0       0       0       0       0       
      +0       0       0       0       0       0       0       0       0       0
  5570 ;;Total ram usage:       16 bytes
  5571 ;; Hardware stack levels used:    1
  5572 ;; Hardware stack levels required when called:    6
  5573 ;; This function calls:
  5574 ;;		___ftpack
  5575 ;; This function is called by:
  5576 ;;		_main
  5577 ;; This function uses a non-reentrant model
  5578 ;;
  5579                           
  5580                           
  5581                           ;psect for function ___ftmul
  5582  0376                     ___ftmul:	
  5583                           
  5584                           ;incstack = 0
  5585                           ; Regs used in ___ftmul: [wreg+status,2+status,0+pclath+cstack]
  5586  0376  0140               	movlb	0	; select bank0
  5587  0377  0843               	movf	___ftmul@f1,w
  5588  0378  00C9               	movwf	??___ftmul
  5589  0379  0844               	movf	___ftmul@f1+1,w
  5590  037A  00CA               	movwf	??___ftmul+1
  5591  037B  0845               	movf	___ftmul@f1+2,w
  5592  037C  00CB               	movwf	??___ftmul+2
  5593  037D  1003               	clrc
  5594  037E  0D4A               	rlf	??___ftmul+1,w
  5595  037F  0D4B               	rlf	??___ftmul+2,w
  5596  0380  00CC               	movwf	??___ftmul+3
  5597  0381  084C               	movf	??___ftmul+3,w
  5598  0382  0141               	movlb	1	; select bank1
  5599  0383  00A0               	movwf	___ftmul@exp^(0+128)
  5600  0384  0820               	movf	___ftmul@exp^(0+128),w
  5601  0385  1D03               	btfss	3,2
  5602  0386  2B8F               	goto	l3007
  5603  0387  3000               	movlw	0
  5604  0388  0140               	movlb	0	; select bank0
  5605  0389  00C3               	movwf	?___ftmul
  5606  038A  3000               	movlw	0
  5607  038B  00C4               	movwf	?___ftmul+1
  5608  038C  3000               	movlw	0
  5609  038D  00C5               	movwf	?___ftmul+2
  5610  038E  0008               	return
  5611  038F                     l3007:	
  5612  038F  0140               	movlb	0	; select bank0
  5613  0390  0846               	movf	___ftmul@f2,w
  5614  0391  00C9               	movwf	??___ftmul
  5615  0392  0847               	movf	___ftmul@f2+1,w
  5616  0393  00CA               	movwf	??___ftmul+1
  5617  0394  0848               	movf	___ftmul@f2+2,w
  5618  0395  00CB               	movwf	??___ftmul+2
  5619  0396  1003               	clrc
  5620  0397  0D4A               	rlf	??___ftmul+1,w
  5621  0398  0D4B               	rlf	??___ftmul+2,w
  5622  0399  00CC               	movwf	??___ftmul+3
  5623  039A  084C               	movf	??___ftmul+3,w
  5624  039B  0141               	movlb	1	; select bank1
  5625  039C  00A5               	movwf	___ftmul@sign^(0+128)
  5626  039D  0825               	movf	___ftmul@sign^(0+128),w
  5627  039E  1D03               	btfss	3,2
  5628  039F  2BA8               	goto	l3013
  5629  03A0  3000               	movlw	0
  5630  03A1  0140               	movlb	0	; select bank0
  5631  03A2  00C3               	movwf	?___ftmul
  5632  03A3  3000               	movlw	0
  5633  03A4  00C4               	movwf	?___ftmul+1
  5634  03A5  3000               	movlw	0
  5635  03A6  00C5               	movwf	?___ftmul+2
  5636  03A7  0008               	return
  5637  03A8                     l3013:	
  5638  03A8  0141               	movlb	1	; select bank1
  5639  03A9  0825               	movf	___ftmul@sign^(0+128),w
  5640  03AA  3E7B               	addlw	123
  5641  03AB  0140               	movlb	0	; select bank0
  5642  03AC  00C9               	movwf	??___ftmul
  5643  03AD  0849               	movf	??___ftmul,w
  5644  03AE  0141               	movlb	1	; select bank1
  5645  03AF  07A0               	addwf	___ftmul@exp^(0+128),f
  5646  03B0  0140               	movlb	0	; select bank0
  5647  03B1  0843               	movf	___ftmul@f1,w
  5648  03B2  00C9               	movwf	??___ftmul
  5649  03B3  0844               	movf	___ftmul@f1+1,w
  5650  03B4  00CA               	movwf	??___ftmul+1
  5651  03B5  0845               	movf	___ftmul@f1+2,w
  5652  03B6  00CB               	movwf	??___ftmul+2
  5653  03B7  3010               	movlw	16
  5654  03B8                     u4355:	
  5655  03B8  36CB               	lsrf	??___ftmul+2,f
  5656  03B9  0CCA               	rrf	??___ftmul+1,f
  5657  03BA  0CC9               	rrf	??___ftmul,f
  5658  03BB  0B89               	decfsz	9,f
  5659  03BC  2BB8               	goto	u4355
  5660  03BD  0849               	movf	??___ftmul,w
  5661  03BE  00CC               	movwf	??___ftmul+3
  5662  03BF  084C               	movf	??___ftmul+3,w
  5663  03C0  0141               	movlb	1	; select bank1
  5664  03C1  00A5               	movwf	___ftmul@sign^(0+128)
  5665  03C2  0140               	movlb	0	; select bank0
  5666  03C3  0846               	movf	___ftmul@f2,w
  5667  03C4  00C9               	movwf	??___ftmul
  5668  03C5  0847               	movf	___ftmul@f2+1,w
  5669  03C6  00CA               	movwf	??___ftmul+1
  5670  03C7  0848               	movf	___ftmul@f2+2,w
  5671  03C8  00CB               	movwf	??___ftmul+2
  5672  03C9  3010               	movlw	16
  5673  03CA                     u4365:	
  5674  03CA  36CB               	lsrf	??___ftmul+2,f
  5675  03CB  0CCA               	rrf	??___ftmul+1,f
  5676  03CC  0CC9               	rrf	??___ftmul,f
  5677  03CD  0B89               	decfsz	9,f
  5678  03CE  2BCA               	goto	u4365
  5679  03CF  0849               	movf	??___ftmul,w
  5680  03D0  00CC               	movwf	??___ftmul+3
  5681  03D1  084C               	movf	??___ftmul+3,w
  5682  03D2  0141               	movlb	1	; select bank1
  5683  03D3  06A5               	xorwf	___ftmul@sign^(0+128),f
  5684  03D4  3080               	movlw	128
  5685  03D5  0140               	movlb	0	; select bank0
  5686  03D6  00C9               	movwf	??___ftmul
  5687  03D7  0849               	movf	??___ftmul,w
  5688  03D8  0141               	movlb	1	; select bank1
  5689  03D9  05A5               	andwf	___ftmul@sign^(0+128),f
  5690  03DA  0140               	movlb	0	; select bank0
  5691  03DB  17C4               	bsf	___ftmul@f1+1,7
  5692  03DC  17C7               	bsf	___ftmul@f2+1,7
  5693  03DD  30FF               	movlw	255
  5694  03DE  05C6               	andwf	___ftmul@f2,f
  5695  03DF  30FF               	movlw	255
  5696  03E0  05C7               	andwf	___ftmul@f2+1,f
  5697  03E1  3000               	movlw	0
  5698  03E2  05C8               	andwf	___ftmul@f2+2,f
  5699  03E3  3000               	movlw	0
  5700  03E4  0141               	movlb	1	; select bank1
  5701  03E5  00A1               	movwf	___ftmul@f3_as_product^(0+128)
  5702  03E6  3000               	movlw	0
  5703  03E7  00A2               	movwf	(___ftmul@f3_as_product+1)^(0+128)
  5704  03E8  3000               	movlw	0
  5705  03E9  00A3               	movwf	(___ftmul@f3_as_product+2)^(0+128)
  5706  03EA  3007               	movlw	7
  5707  03EB  0140               	movlb	0	; select bank0
  5708  03EC  00C9               	movwf	??___ftmul
  5709  03ED  0849               	movf	??___ftmul,w
  5710  03EE  0141               	movlb	1	; select bank1
  5711  03EF  00A4               	movwf	___ftmul@cntr^(0+128)
  5712  03F0                     l3025:	
  5713  03F0  0140               	movlb	0	; select bank0
  5714  03F1  1C43               	btfss	___ftmul@f1,0
  5715  03F2  2BFE               	goto	l3029
  5716  03F3  0846               	movf	___ftmul@f2,w
  5717  03F4  0141               	movlb	1	; select bank1
  5718  03F5  07A1               	addwf	___ftmul@f3_as_product^(0+128),f
  5719  03F6  0140               	movlb	0	; select bank0
  5720  03F7  0847               	movf	___ftmul@f2+1,w
  5721  03F8  0141               	movlb	1	; select bank1
  5722  03F9  3DA2               	addwfc	(___ftmul@f3_as_product+1)^(0+128),f
  5723  03FA  0140               	movlb	0	; select bank0
  5724  03FB  0848               	movf	___ftmul@f2+2,w
  5725  03FC  0141               	movlb	1	; select bank1
  5726  03FD  3DA3               	addwfc	(___ftmul@f3_as_product+2)^(0+128),f
  5727  03FE                     l3029:	
  5728  03FE  3001               	movlw	1
  5729  03FF                     u4385:	
  5730  03FF  0140               	movlb	0	; select bank0
  5731  0400  36C5               	lsrf	___ftmul@f1+2,f
  5732  0401  0CC4               	rrf	___ftmul@f1+1,f
  5733  0402  0CC3               	rrf	___ftmul@f1,f
  5734  0403  0B89               	decfsz	9,f
  5735  0404  2BFF               	goto	u4385
  5736  0405  3001               	movlw	1
  5737  0406                     u4395:	
  5738  0406  35C6               	lslf	___ftmul@f2,f
  5739  0407  0DC7               	rlf	___ftmul@f2+1,f
  5740  0408  0DC8               	rlf	___ftmul@f2+2,f
  5741  0409  0B89               	decfsz	9,f
  5742  040A  2C06               	goto	u4395
  5743  040B  3001               	movlw	1
  5744  040C  0141               	movlb	1	; select bank1
  5745  040D  02A4               	subwf	___ftmul@cntr^(0+128),f
  5746  040E  1D03               	btfss	3,2
  5747  040F  2BF0               	goto	l3025
  5748  0410  3009               	movlw	9
  5749  0411  0140               	movlb	0	; select bank0
  5750  0412  00C9               	movwf	??___ftmul
  5751  0413  0849               	movf	??___ftmul,w
  5752  0414  0141               	movlb	1	; select bank1
  5753  0415  00A4               	movwf	___ftmul@cntr^(0+128)
  5754  0416                     l3037:	
  5755  0416  0140               	movlb	0	; select bank0
  5756  0417  1C43               	btfss	___ftmul@f1,0
  5757  0418  2C24               	goto	l3041
  5758  0419  0846               	movf	___ftmul@f2,w
  5759  041A  0141               	movlb	1	; select bank1
  5760  041B  07A1               	addwf	___ftmul@f3_as_product^(0+128),f
  5761  041C  0140               	movlb	0	; select bank0
  5762  041D  0847               	movf	___ftmul@f2+1,w
  5763  041E  0141               	movlb	1	; select bank1
  5764  041F  3DA2               	addwfc	(___ftmul@f3_as_product+1)^(0+128),f
  5765  0420  0140               	movlb	0	; select bank0
  5766  0421  0848               	movf	___ftmul@f2+2,w
  5767  0422  0141               	movlb	1	; select bank1
  5768  0423  3DA3               	addwfc	(___ftmul@f3_as_product+2)^(0+128),f
  5769  0424                     l3041:	
  5770  0424  3001               	movlw	1
  5771  0425                     u4425:	
  5772  0425  0140               	movlb	0	; select bank0
  5773  0426  36C5               	lsrf	___ftmul@f1+2,f
  5774  0427  0CC4               	rrf	___ftmul@f1+1,f
  5775  0428  0CC3               	rrf	___ftmul@f1,f
  5776  0429  0B89               	decfsz	9,f
  5777  042A  2C25               	goto	u4425
  5778  042B  3001               	movlw	1
  5779  042C                     u4435:	
  5780  042C  0141               	movlb	1	; select bank1
  5781  042D  36A3               	lsrf	(___ftmul@f3_as_product+2)^(0+128),f
  5782  042E  0CA2               	rrf	(___ftmul@f3_as_product+1)^(0+128),f
  5783  042F  0CA1               	rrf	___ftmul@f3_as_product^(0+128),f
  5784  0430  0B89               	decfsz	9,f
  5785  0431  2C2C               	goto	u4435
  5786  0432  3001               	movlw	1
  5787  0433  02A4               	subwf	___ftmul@cntr^(0+128),f
  5788  0434  1D03               	btfss	3,2
  5789  0435  2C16               	goto	l3037
  5790  0436  0821               	movf	___ftmul@f3_as_product^(0+128),w
  5791  0437  0140               	movlb	0	; select bank0
  5792  0438  00BB               	movwf	___ftpack@arg
  5793  0439  0141               	movlb	1	; select bank1
  5794  043A  0822               	movf	(___ftmul@f3_as_product+1)^(0+128),w
  5795  043B  0140               	movlb	0	; select bank0
  5796  043C  00BC               	movwf	___ftpack@arg+1
  5797  043D  0141               	movlb	1	; select bank1
  5798  043E  0823               	movf	(___ftmul@f3_as_product+2)^(0+128),w
  5799  043F  0140               	movlb	0	; select bank0
  5800  0440  00BD               	movwf	___ftpack@arg+2
  5801  0441  0141               	movlb	1	; select bank1
  5802  0442  0820               	movf	___ftmul@exp^(0+128),w
  5803  0443  0140               	movlb	0	; select bank0
  5804  0444  00C9               	movwf	??___ftmul
  5805  0445  0849               	movf	??___ftmul,w
  5806  0446  00BE               	movwf	___ftpack@exp
  5807  0447  0141               	movlb	1	; select bank1
  5808  0448  0825               	movf	___ftmul@sign^(0+128),w
  5809  0449  0140               	movlb	0	; select bank0
  5810  044A  00CA               	movwf	??___ftmul+1
  5811  044B  084A               	movf	??___ftmul+1,w
  5812  044C  00BF               	movwf	___ftpack@sign
  5813  044D  318F  279B         	fcall	___ftpack
  5814  044F  0140               	movlb	0	; select bank0
  5815  0450  083B               	movf	?___ftpack,w
  5816  0451  00C3               	movwf	?___ftmul
  5817  0452  083C               	movf	?___ftpack+1,w
  5818  0453  00C4               	movwf	?___ftmul+1
  5819  0454  083D               	movf	?___ftpack+2,w
  5820  0455  00C5               	movwf	?___ftmul+2
  5821  0456  0008               	return
  5822  0457                     __end_of___ftmul:	
  5823                           
  5824                           	psect	text8
  5825  0EAD                     __ptext8:	
  5826 ;; *************** function ___ftge *****************
  5827 ;; Defined at:
  5828 ;;		line 4 in file "C:\Program Files (x86)\Microchip\xc8\v1.45\sources\common\ftge.c"
  5829 ;; Parameters:    Size  Location     Type
  5830 ;;  ff1             3   27[BANK0 ] float 
  5831 ;;  ff2             3   30[BANK0 ] float 
  5832 ;; Auto vars:     Size  Location     Type
  5833 ;;		None
  5834 ;; Return value:  Size  Location     Type
  5835 ;;		None               void
  5836 ;; Registers used:
  5837 ;;		wreg, status,2, status,0
  5838 ;; Tracked objects:
  5839 ;;		On entry : 0/0
  5840 ;;		On exit  : 0/0
  5841 ;;		Unchanged: 0/0
  5842 ;; Data sizes:     COMMON   BANK0   BANK1   BANK2   BANK3   BANK4   BANK5   BANK6   BANK7   BANK8   BANK9  BANK10  BANK1
      +1  BANK12  BANK13  BANK14  BANK15  BANK16  BANK17  BANK18  BANK19  BANK20  BANK21  BANK22  BANK23  BANK24  BANK25  BANK2
      +6  BANK27  BANK28  BANK29  BANK30  BANK31  BANK32  BANK33  BANK34  BANK35  BANK36  BANK37  BANK38  BANK39  BANK40  BANK4
      +1  BANK42  BANK43  BANK44  BANK45  BANK46  BANK47  BANK48  BANK49  BANK50
  5843 ;;      Params:         0       6       0       0       0       0       0       0       0       0       0       0       
      +0       0       0       0       0       0       0       0       0       0       0       0       0       0       0       
      +0       0       0       0       0       0       0       0       0       0       0       0       0       0       0       
      +0       0       0       0       0       0       0       0       0       0
  5844 ;;      Locals:         0       0       0       0       0       0       0       0       0       0       0       0       
      +0       0       0       0       0       0       0       0       0       0       0       0       0       0       0       
      +0       0       0       0       0       0       0       0       0       0       0       0       0       0       0       
      +0       0       0       0       0       0       0       0       0       0
  5845 ;;      Temps:          0       3       0       0       0       0       0       0       0       0       0       0       
      +0       0       0       0       0       0       0       0       0       0       0       0       0       0       0       
      +0       0       0       0       0       0       0       0       0       0       0       0       0       0       0       
      +0       0       0       0       0       0       0       0       0       0
  5846 ;;      Totals:         0       9       0       0       0       0       0       0       0       0       0       0       
      +0       0       0       0       0       0       0       0       0       0       0       0       0       0       0       
      +0       0       0       0       0       0       0       0       0       0       0       0       0       0       0       
      +0       0       0       0       0       0       0       0       0       0
  5847 ;;Total ram usage:        9 bytes
  5848 ;; Hardware stack levels used:    1
  5849 ;; Hardware stack levels required when called:    5
  5850 ;; This function calls:
  5851 ;;		Nothing
  5852 ;; This function is called by:
  5853 ;;		_main
  5854 ;; This function uses a non-reentrant model
  5855 ;;
  5856                           
  5857                           
  5858                           ;psect for function ___ftge
  5859  0EAD                     ___ftge:	
  5860                           
  5861                           ;incstack = 0
  5862                           ; Regs used in ___ftge: [wreg+status,2+status,0]
  5863  0EAD  0140               	movlb	0	; select bank0
  5864  0EAE  1FBD               	btfss	___ftge@ff1+2,7
  5865  0EAF  2EC4               	goto	l2585
  5866  0EB0  093B               	comf	___ftge@ff1,w
  5867  0EB1  00C1               	movwf	??___ftge
  5868  0EB2  093C               	comf	___ftge@ff1+1,w
  5869  0EB3  00C2               	movwf	??___ftge+1
  5870  0EB4  093D               	comf	___ftge@ff1+2,w
  5871  0EB5  00C3               	movwf	??___ftge+2
  5872  0EB6  0AC1               	incf	??___ftge,f
  5873  0EB7  1903               	skipnz
  5874  0EB8  0AC2               	incf	??___ftge+1,f
  5875  0EB9  1903               	skipnz
  5876  0EBA  0AC3               	incf	??___ftge+2,f
  5877  0EBB  3000               	movlw	0
  5878  0EBC  0741               	addwf	??___ftge,w
  5879  0EBD  00BB               	movwf	___ftge@ff1
  5880  0EBE  3000               	movlw	0
  5881  0EBF  3D42               	addwfc	??___ftge+1,w
  5882  0EC0  00BC               	movwf	___ftge@ff1+1
  5883  0EC1  3080               	movlw	128
  5884  0EC2  3D43               	addwfc	??___ftge+2,w
  5885  0EC3  00BD               	movwf	___ftge@ff1+2
  5886  0EC4                     l2585:	
  5887  0EC4  1FC0               	btfss	___ftge@ff2+2,7
  5888  0EC5  2EDA               	goto	l2589
  5889  0EC6  093E               	comf	___ftge@ff2,w
  5890  0EC7  00C1               	movwf	??___ftge
  5891  0EC8  093F               	comf	___ftge@ff2+1,w
  5892  0EC9  00C2               	movwf	??___ftge+1
  5893  0ECA  0940               	comf	___ftge@ff2+2,w
  5894  0ECB  00C3               	movwf	??___ftge+2
  5895  0ECC  0AC1               	incf	??___ftge,f
  5896  0ECD  1903               	skipnz
  5897  0ECE  0AC2               	incf	??___ftge+1,f
  5898  0ECF  1903               	skipnz
  5899  0ED0  0AC3               	incf	??___ftge+2,f
  5900  0ED1  3000               	movlw	0
  5901  0ED2  0741               	addwf	??___ftge,w
  5902  0ED3  00BE               	movwf	___ftge@ff2
  5903  0ED4  3000               	movlw	0
  5904  0ED5  3D42               	addwfc	??___ftge+1,w
  5905  0ED6  00BF               	movwf	___ftge@ff2+1
  5906  0ED7  3080               	movlw	128
  5907  0ED8  3D43               	addwfc	??___ftge+2,w
  5908  0ED9  00C0               	movwf	___ftge@ff2+2
  5909  0EDA                     l2589:	
  5910  0EDA  3080               	movlw	128
  5911  0EDB  06BD               	xorwf	___ftge@ff1+2,f
  5912  0EDC  3080               	movlw	128
  5913  0EDD  06C0               	xorwf	___ftge@ff2+2,f
  5914  0EDE  0840               	movf	___ftge@ff2+2,w
  5915  0EDF  023D               	subwf	___ftge@ff1+2,w
  5916  0EE0  1D03               	skipz
  5917  0EE1  0008               	return
  5918  0EE2  083F               	movf	___ftge@ff2+1,w
  5919  0EE3  023C               	subwf	___ftge@ff1+1,w
  5920  0EE4  1D03               	skipz
  5921  0EE5  0008               	return
  5922  0EE6  083E               	movf	___ftge@ff2,w
  5923  0EE7  023B               	subwf	___ftge@ff1,w
  5924  0EE8  0008               	return
  5925  0EE9                     __end_of___ftge:	
  5926                           
  5927                           	psect	text9
  5928  0522                     __ptext9:	
  5929 ;; *************** function ___ftdiv *****************
  5930 ;; Defined at:
  5931 ;;		line 56 in file "C:\Program Files (x86)\Microchip\xc8\v1.45\sources\common\ftdiv.c"
  5932 ;; Parameters:    Size  Location     Type
  5933 ;;  f2              3   35[BANK0 ] float 
  5934 ;;  f1              3   38[BANK0 ] float 
  5935 ;; Auto vars:     Size  Location     Type
  5936 ;;  f3              3    1[BANK1 ] float 
  5937 ;;  sign            1    5[BANK1 ] unsigned char 
  5938 ;;  exp             1    4[BANK1 ] unsigned char 
  5939 ;;  cntr            1    0[BANK1 ] unsigned char 
  5940 ;; Return value:  Size  Location     Type
  5941 ;;                  3   35[BANK0 ] float 
  5942 ;; Registers used:
  5943 ;;		wreg, status,2, status,0, pclath, cstack
  5944 ;; Tracked objects:
  5945 ;;		On entry : 0/0
  5946 ;;		On exit  : 0/0
  5947 ;;		Unchanged: 0/0
  5948 ;; Data sizes:     COMMON   BANK0   BANK1   BANK2   BANK3   BANK4   BANK5   BANK6   BANK7   BANK8   BANK9  BANK10  BANK1
      +1  BANK12  BANK13  BANK14  BANK15  BANK16  BANK17  BANK18  BANK19  BANK20  BANK21  BANK22  BANK23  BANK24  BANK25  BANK2
      +6  BANK27  BANK28  BANK29  BANK30  BANK31  BANK32  BANK33  BANK34  BANK35  BANK36  BANK37  BANK38  BANK39  BANK40  BANK4
      +1  BANK42  BANK43  BANK44  BANK45  BANK46  BANK47  BANK48  BANK49  BANK50
  5949 ;;      Params:         0       6       0       0       0       0       0       0       0       0       0       0       
      +0       0       0       0       0       0       0       0       0       0       0       0       0       0       0       
      +0       0       0       0       0       0       0       0       0       0       0       0       0       0       0       
      +0       0       0       0       0       0       0       0       0       0
  5950 ;;      Locals:         0       0       6       0       0       0       0       0       0       0       0       0       
      +0       0       0       0       0       0       0       0       0       0       0       0       0       0       0       
      +0       0       0       0       0       0       0       0       0       0       0       0       0       0       0       
      +0       0       0       0       0       0       0       0       0       0
  5951 ;;      Temps:          0       4       0       0       0       0       0       0       0       0       0       0       
      +0       0       0       0       0       0       0       0       0       0       0       0       0       0       0       
      +0       0       0       0       0       0       0       0       0       0       0       0       0       0       0       
      +0       0       0       0       0       0       0       0       0       0
  5952 ;;      Totals:         0      10       6       0       0       0       0       0       0       0       0       0       
      +0       0       0       0       0       0       0       0       0       0       0       0       0       0       0       
      +0       0       0       0       0       0       0       0       0       0       0       0       0       0       0       
      +0       0       0       0       0       0       0       0       0       0
  5953 ;;Total ram usage:       16 bytes
  5954 ;; Hardware stack levels used:    1
  5955 ;; Hardware stack levels required when called:    6
  5956 ;; This function calls:
  5957 ;;		___ftpack
  5958 ;; This function is called by:
  5959 ;;		_main
  5960 ;; This function uses a non-reentrant model
  5961 ;;
  5962                           
  5963                           
  5964                           ;psect for function ___ftdiv
  5965  0522                     ___ftdiv:	
  5966                           
  5967                           ;incstack = 0
  5968                           ; Regs used in ___ftdiv: [wreg+status,2+status,0+pclath+cstack]
  5969  0522  0140               	movlb	0	; select bank0
  5970  0523  0846               	movf	___ftdiv@f1,w
  5971  0524  00C9               	movwf	??___ftdiv
  5972  0525  0847               	movf	___ftdiv@f1+1,w
  5973  0526  00CA               	movwf	??___ftdiv+1
  5974  0527  0848               	movf	___ftdiv@f1+2,w
  5975  0528  00CB               	movwf	??___ftdiv+2
  5976  0529  1003               	clrc
  5977  052A  0D4A               	rlf	??___ftdiv+1,w
  5978  052B  0D4B               	rlf	??___ftdiv+2,w
  5979  052C  00CC               	movwf	??___ftdiv+3
  5980  052D  084C               	movf	??___ftdiv+3,w
  5981  052E  0141               	movlb	1	; select bank1
  5982  052F  00A4               	movwf	___ftdiv@exp^(0+128)
  5983  0530  0824               	movf	___ftdiv@exp^(0+128),w
  5984  0531  1D03               	btfss	3,2
  5985  0532  2D3B               	goto	l2965
  5986  0533  3000               	movlw	0
  5987  0534  0140               	movlb	0	; select bank0
  5988  0535  00C3               	movwf	?___ftdiv
  5989  0536  3000               	movlw	0
  5990  0537  00C4               	movwf	?___ftdiv+1
  5991  0538  3000               	movlw	0
  5992  0539  00C5               	movwf	?___ftdiv+2
  5993  053A  0008               	return
  5994  053B                     l2965:	
  5995  053B  0140               	movlb	0	; select bank0
  5996  053C  0843               	movf	___ftdiv@f2,w
  5997  053D  00C9               	movwf	??___ftdiv
  5998  053E  0844               	movf	___ftdiv@f2+1,w
  5999  053F  00CA               	movwf	??___ftdiv+1
  6000  0540  0845               	movf	___ftdiv@f2+2,w
  6001  0541  00CB               	movwf	??___ftdiv+2
  6002  0542  1003               	clrc
  6003  0543  0D4A               	rlf	??___ftdiv+1,w
  6004  0544  0D4B               	rlf	??___ftdiv+2,w
  6005  0545  00CC               	movwf	??___ftdiv+3
  6006  0546  084C               	movf	??___ftdiv+3,w
  6007  0547  0141               	movlb	1	; select bank1
  6008  0548  00A5               	movwf	___ftdiv@sign^(0+128)
  6009  0549  0825               	movf	___ftdiv@sign^(0+128),w
  6010  054A  1D03               	btfss	3,2
  6011  054B  2D54               	goto	l2971
  6012  054C  3000               	movlw	0
  6013  054D  0140               	movlb	0	; select bank0
  6014  054E  00C3               	movwf	?___ftdiv
  6015  054F  3000               	movlw	0
  6016  0550  00C4               	movwf	?___ftdiv+1
  6017  0551  3000               	movlw	0
  6018  0552  00C5               	movwf	?___ftdiv+2
  6019  0553  0008               	return
  6020  0554                     l2971:	
  6021  0554  3000               	movlw	0
  6022  0555  0141               	movlb	1	; select bank1
  6023  0556  00A1               	movwf	___ftdiv@f3^(0+128)
  6024  0557  3000               	movlw	0
  6025  0558  00A2               	movwf	(___ftdiv@f3+1)^(0+128)
  6026  0559  3000               	movlw	0
  6027  055A  00A3               	movwf	(___ftdiv@f3+2)^(0+128)
  6028  055B  3089               	movlw	137
  6029  055C  0725               	addwf	___ftdiv@sign^(0+128),w
  6030  055D  0140               	movlb	0	; select bank0
  6031  055E  00C9               	movwf	??___ftdiv
  6032  055F  0849               	movf	??___ftdiv,w
  6033  0560  0141               	movlb	1	; select bank1
  6034  0561  02A4               	subwf	___ftdiv@exp^(0+128),f
  6035  0562  0140               	movlb	0	; select bank0
  6036  0563  0846               	movf	___ftdiv@f1,w
  6037  0564  00C9               	movwf	??___ftdiv
  6038  0565  0847               	movf	___ftdiv@f1+1,w
  6039  0566  00CA               	movwf	??___ftdiv+1
  6040  0567  0848               	movf	___ftdiv@f1+2,w
  6041  0568  00CB               	movwf	??___ftdiv+2
  6042  0569  3010               	movlw	16
  6043  056A                     u4275:	
  6044  056A  36CB               	lsrf	??___ftdiv+2,f
  6045  056B  0CCA               	rrf	??___ftdiv+1,f
  6046  056C  0CC9               	rrf	??___ftdiv,f
  6047  056D  0B89               	decfsz	9,f
  6048  056E  2D6A               	goto	u4275
  6049  056F  0849               	movf	??___ftdiv,w
  6050  0570  00CC               	movwf	??___ftdiv+3
  6051  0571  084C               	movf	??___ftdiv+3,w
  6052  0572  0141               	movlb	1	; select bank1
  6053  0573  00A5               	movwf	___ftdiv@sign^(0+128)
  6054  0574  0140               	movlb	0	; select bank0
  6055  0575  0843               	movf	___ftdiv@f2,w
  6056  0576  00C9               	movwf	??___ftdiv
  6057  0577  0844               	movf	___ftdiv@f2+1,w
  6058  0578  00CA               	movwf	??___ftdiv+1
  6059  0579  0845               	movf	___ftdiv@f2+2,w
  6060  057A  00CB               	movwf	??___ftdiv+2
  6061  057B  3010               	movlw	16
  6062  057C                     u4285:	
  6063  057C  36CB               	lsrf	??___ftdiv+2,f
  6064  057D  0CCA               	rrf	??___ftdiv+1,f
  6065  057E  0CC9               	rrf	??___ftdiv,f
  6066  057F  0B89               	decfsz	9,f
  6067  0580  2D7C               	goto	u4285
  6068  0581  0849               	movf	??___ftdiv,w
  6069  0582  00CC               	movwf	??___ftdiv+3
  6070  0583  084C               	movf	??___ftdiv+3,w
  6071  0584  0141               	movlb	1	; select bank1
  6072  0585  06A5               	xorwf	___ftdiv@sign^(0+128),f
  6073  0586  3080               	movlw	128
  6074  0587  0140               	movlb	0	; select bank0
  6075  0588  00C9               	movwf	??___ftdiv
  6076  0589  0849               	movf	??___ftdiv,w
  6077  058A  0141               	movlb	1	; select bank1
  6078  058B  05A5               	andwf	___ftdiv@sign^(0+128),f
  6079  058C  0140               	movlb	0	; select bank0
  6080  058D  17C7               	bsf	___ftdiv@f1+1,7
  6081  058E  30FF               	movlw	255
  6082  058F  05C6               	andwf	___ftdiv@f1,f
  6083  0590  30FF               	movlw	255
  6084  0591  05C7               	andwf	___ftdiv@f1+1,f
  6085  0592  3000               	movlw	0
  6086  0593  05C8               	andwf	___ftdiv@f1+2,f
  6087  0594  17C4               	bsf	___ftdiv@f2+1,7
  6088  0595  30FF               	movlw	255
  6089  0596  05C3               	andwf	___ftdiv@f2,f
  6090  0597  30FF               	movlw	255
  6091  0598  05C4               	andwf	___ftdiv@f2+1,f
  6092  0599  3000               	movlw	0
  6093  059A  05C5               	andwf	___ftdiv@f2+2,f
  6094  059B  3018               	movlw	24
  6095  059C  00C9               	movwf	??___ftdiv
  6096  059D  0849               	movf	??___ftdiv,w
  6097  059E  0141               	movlb	1	; select bank1
  6098  059F  00A0               	movwf	___ftdiv@cntr^(0+128)
  6099  05A0                     l2985:	
  6100  05A0  3001               	movlw	1
  6101  05A1                     u4295:	
  6102  05A1  35A1               	lslf	___ftdiv@f3^(0+128),f
  6103  05A2  0DA2               	rlf	(___ftdiv@f3+1)^(0+128),f
  6104  05A3  0DA3               	rlf	(___ftdiv@f3+2)^(0+128),f
  6105  05A4  0B89               	decfsz	9,f
  6106  05A5  2DA1               	goto	u4295
  6107  05A6  0140               	movlb	0	; select bank0
  6108  05A7  0845               	movf	___ftdiv@f2+2,w
  6109  05A8  0248               	subwf	___ftdiv@f1+2,w
  6110  05A9  1D03               	skipz
  6111  05AA  2DB1               	goto	u4305
  6112  05AB  0844               	movf	___ftdiv@f2+1,w
  6113  05AC  0247               	subwf	___ftdiv@f1+1,w
  6114  05AD  1D03               	skipz
  6115  05AE  2DB1               	goto	u4305
  6116  05AF  0843               	movf	___ftdiv@f2,w
  6117  05B0  0246               	subwf	___ftdiv@f1,w
  6118  05B1                     u4305:	
  6119  05B1  1C03               	skipc
  6120  05B2  2DBB               	goto	l2993
  6121  05B3  0843               	movf	___ftdiv@f2,w
  6122  05B4  02C6               	subwf	___ftdiv@f1,f
  6123  05B5  0844               	movf	___ftdiv@f2+1,w
  6124  05B6  3BC7               	subwfb	___ftdiv@f1+1,f
  6125  05B7  0845               	movf	___ftdiv@f2+2,w
  6126  05B8  3BC8               	subwfb	___ftdiv@f1+2,f
  6127  05B9  0141               	movlb	1	; select bank1
  6128  05BA  1421               	bsf	___ftdiv@f3^(0+128),0
  6129  05BB                     l2993:	
  6130  05BB  3001               	movlw	1
  6131  05BC                     u4315:	
  6132  05BC  0140               	movlb	0	; select bank0
  6133  05BD  35C6               	lslf	___ftdiv@f1,f
  6134  05BE  0DC7               	rlf	___ftdiv@f1+1,f
  6135  05BF  0DC8               	rlf	___ftdiv@f1+2,f
  6136  05C0  0B89               	decfsz	9,f
  6137  05C1  2DBC               	goto	u4315
  6138  05C2  3001               	movlw	1
  6139  05C3  0141               	movlb	1	; select bank1
  6140  05C4  02A0               	subwf	___ftdiv@cntr^(0+128),f
  6141  05C5  1D03               	btfss	3,2
  6142  05C6  2DA0               	goto	l2985
  6143  05C7  0821               	movf	___ftdiv@f3^(0+128),w
  6144  05C8  0140               	movlb	0	; select bank0
  6145  05C9  00BB               	movwf	___ftpack@arg
  6146  05CA  0141               	movlb	1	; select bank1
  6147  05CB  0822               	movf	(___ftdiv@f3+1)^(0+128),w
  6148  05CC  0140               	movlb	0	; select bank0
  6149  05CD  00BC               	movwf	___ftpack@arg+1
  6150  05CE  0141               	movlb	1	; select bank1
  6151  05CF  0823               	movf	(___ftdiv@f3+2)^(0+128),w
  6152  05D0  0140               	movlb	0	; select bank0
  6153  05D1  00BD               	movwf	___ftpack@arg+2
  6154  05D2  0141               	movlb	1	; select bank1
  6155  05D3  0824               	movf	___ftdiv@exp^(0+128),w
  6156  05D4  0140               	movlb	0	; select bank0
  6157  05D5  00C9               	movwf	??___ftdiv
  6158  05D6  0849               	movf	??___ftdiv,w
  6159  05D7  00BE               	movwf	___ftpack@exp
  6160  05D8  0141               	movlb	1	; select bank1
  6161  05D9  0825               	movf	___ftdiv@sign^(0+128),w
  6162  05DA  0140               	movlb	0	; select bank0
  6163  05DB  00CA               	movwf	??___ftdiv+1
  6164  05DC  084A               	movf	??___ftdiv+1,w
  6165  05DD  00BF               	movwf	___ftpack@sign
  6166  05DE  318F  279B         	fcall	___ftpack
  6167  05E0  0140               	movlb	0	; select bank0
  6168  05E1  083B               	movf	?___ftpack,w
  6169  05E2  00C3               	movwf	?___ftdiv
  6170  05E3  083C               	movf	?___ftpack+1,w
  6171  05E4  00C4               	movwf	?___ftdiv+1
  6172  05E5  083D               	movf	?___ftpack+2,w
  6173  05E6  00C5               	movwf	?___ftdiv+2
  6174  05E7  0008               	return
  6175  05E8                     __end_of___ftdiv:	
  6176                           
  6177                           	psect	text10
  6178  0167                     __ptext10:	
  6179 ;; *************** function ___ftadd *****************
  6180 ;; Defined at:
  6181 ;;		line 86 in file "C:\Program Files (x86)\Microchip\xc8\v1.45\sources\common\ftadd.c"
  6182 ;; Parameters:    Size  Location     Type
  6183 ;;  f1              3   35[BANK0 ] float 
  6184 ;;  f2              3   38[BANK0 ] float 
  6185 ;; Auto vars:     Size  Location     Type
  6186 ;;  exp1            1    2[BANK1 ] unsigned char 
  6187 ;;  exp2            1    1[BANK1 ] unsigned char 
  6188 ;;  sign            1    0[BANK1 ] unsigned char 
  6189 ;; Return value:  Size  Location     Type
  6190 ;;                  3   35[BANK0 ] float 
  6191 ;; Registers used:
  6192 ;;		wreg, status,2, status,0, pclath, cstack
  6193 ;; Tracked objects:
  6194 ;;		On entry : 0/0
  6195 ;;		On exit  : 0/0
  6196 ;;		Unchanged: 0/0
  6197 ;; Data sizes:     COMMON   BANK0   BANK1   BANK2   BANK3   BANK4   BANK5   BANK6   BANK7   BANK8   BANK9  BANK10  BANK1
      +1  BANK12  BANK13  BANK14  BANK15  BANK16  BANK17  BANK18  BANK19  BANK20  BANK21  BANK22  BANK23  BANK24  BANK25  BANK2
      +6  BANK27  BANK28  BANK29  BANK30  BANK31  BANK32  BANK33  BANK34  BANK35  BANK36  BANK37  BANK38  BANK39  BANK40  BANK4
      +1  BANK42  BANK43  BANK44  BANK45  BANK46  BANK47  BANK48  BANK49  BANK50
  6198 ;;      Params:         0       6       0       0       0       0       0       0       0       0       0       0       
      +0       0       0       0       0       0       0       0       0       0       0       0       0       0       0       
      +0       0       0       0       0       0       0       0       0       0       0       0       0       0       0       
      +0       0       0       0       0       0       0       0       0       0
  6199 ;;      Locals:         0       0       3       0       0       0       0       0       0       0       0       0       
      +0       0       0       0       0       0       0       0       0       0       0       0       0       0       0       
      +0       0       0       0       0       0       0       0       0       0       0       0       0       0       0       
      +0       0       0       0       0       0       0       0       0       0
  6200 ;;      Temps:          0       4       0       0       0       0       0       0       0       0       0       0       
      +0       0       0       0       0       0       0       0       0       0       0       0       0       0       0       
      +0       0       0       0       0       0       0       0       0       0       0       0       0       0       0       
      +0       0       0       0       0       0       0       0       0       0
  6201 ;;      Totals:         0      10       3       0       0       0       0       0       0       0       0       0       
      +0       0       0       0       0       0       0       0       0       0       0       0       0       0       0       
      +0       0       0       0       0       0       0       0       0       0       0       0       0       0       0       
      +0       0       0       0       0       0       0       0       0       0
  6202 ;;Total ram usage:       13 bytes
  6203 ;; Hardware stack levels used:    1
  6204 ;; Hardware stack levels required when called:    6
  6205 ;; This function calls:
  6206 ;;		___ftpack
  6207 ;; This function is called by:
  6208 ;;		_main
  6209 ;; This function uses a non-reentrant model
  6210 ;;
  6211                           
  6212                           
  6213                           ;psect for function ___ftadd
  6214  0167                     ___ftadd:	
  6215                           
  6216                           ;incstack = 0
  6217                           ; Regs used in ___ftadd: [wreg+status,2+status,0+pclath+cstack]
  6218  0167  0140               	movlb	0	; select bank0
  6219  0168  0843               	movf	___ftadd@f1,w
  6220  0169  00C9               	movwf	??___ftadd
  6221  016A  0844               	movf	___ftadd@f1+1,w
  6222  016B  00CA               	movwf	??___ftadd+1
  6223  016C  0845               	movf	___ftadd@f1+2,w
  6224  016D  00CB               	movwf	??___ftadd+2
  6225  016E  1003               	clrc
  6226  016F  0D4A               	rlf	??___ftadd+1,w
  6227  0170  0D4B               	rlf	??___ftadd+2,w
  6228  0171  00CC               	movwf	??___ftadd+3
  6229  0172  084C               	movf	??___ftadd+3,w
  6230  0173  0141               	movlb	1	; select bank1
  6231  0174  00A2               	movwf	___ftadd@exp1^(0+128)
  6232  0175  0140               	movlb	0	; select bank0
  6233  0176  0846               	movf	___ftadd@f2,w
  6234  0177  00C9               	movwf	??___ftadd
  6235  0178  0847               	movf	___ftadd@f2+1,w
  6236  0179  00CA               	movwf	??___ftadd+1
  6237  017A  0848               	movf	___ftadd@f2+2,w
  6238  017B  00CB               	movwf	??___ftadd+2
  6239  017C  1003               	clrc
  6240  017D  0D4A               	rlf	??___ftadd+1,w
  6241  017E  0D4B               	rlf	??___ftadd+2,w
  6242  017F  00CC               	movwf	??___ftadd+3
  6243  0180  084C               	movf	??___ftadd+3,w
  6244  0181  0141               	movlb	1	; select bank1
  6245  0182  00A1               	movwf	___ftadd@exp2^(0+128)
  6246  0183  0822               	movf	___ftadd@exp1^(0+128),w
  6247  0184  1903               	btfsc	3,2
  6248  0185  2993               	goto	l2895
  6249  0186  0821               	movf	___ftadd@exp2^(0+128),w
  6250  0187  0222               	subwf	___ftadd@exp1^(0+128),w
  6251  0188  1803               	skipnc
  6252  0189  299B               	goto	l2899
  6253  018A  0322               	decf	___ftadd@exp1^(0+128),w
  6254  018B  3AFF               	xorlw	255
  6255  018C  0721               	addwf	___ftadd@exp2^(0+128),w
  6256  018D  0140               	movlb	0	; select bank0
  6257  018E  00C9               	movwf	??___ftadd
  6258  018F  3019               	movlw	25
  6259  0190  0249               	subwf	??___ftadd,w
  6260  0191  1C03               	skipc
  6261  0192  299B               	goto	l2899
  6262  0193                     l2895:	
  6263  0193  0140               	movlb	0	; select bank0
  6264  0194  0846               	movf	___ftadd@f2,w
  6265  0195  00C3               	movwf	?___ftadd
  6266  0196  0847               	movf	___ftadd@f2+1,w
  6267  0197  00C4               	movwf	?___ftadd+1
  6268  0198  0848               	movf	___ftadd@f2+2,w
  6269  0199  00C5               	movwf	?___ftadd+2
  6270  019A  0008               	return
  6271  019B                     l2899:	
  6272  019B  0141               	movlb	1	; select bank1
  6273  019C  0821               	movf	___ftadd@exp2^(0+128),w
  6274  019D  1903               	btfsc	3,2
  6275  019E  0008               	return
  6276  019F  0822               	movf	___ftadd@exp1^(0+128),w
  6277  01A0  0221               	subwf	___ftadd@exp2^(0+128),w
  6278  01A1  1803               	skipnc
  6279  01A2  29AC               	goto	l2905
  6280  01A3  0321               	decf	___ftadd@exp2^(0+128),w
  6281  01A4  3AFF               	xorlw	255
  6282  01A5  0722               	addwf	___ftadd@exp1^(0+128),w
  6283  01A6  0140               	movlb	0	; select bank0
  6284  01A7  00C9               	movwf	??___ftadd
  6285  01A8  3019               	movlw	25
  6286  01A9  0249               	subwf	??___ftadd,w
  6287  01AA  1803               	btfsc	3,0
  6288  01AB  0008               	return
  6289  01AC                     l2905:	
  6290  01AC  3006               	movlw	6
  6291  01AD  0140               	movlb	0	; select bank0
  6292  01AE  00C9               	movwf	??___ftadd
  6293  01AF  0849               	movf	??___ftadd,w
  6294  01B0  0141               	movlb	1	; select bank1
  6295  01B1  00A0               	movwf	___ftadd@sign^(0+128)
  6296  01B2  0140               	movlb	0	; select bank0
  6297  01B3  1FC5               	btfss	___ftadd@f1+2,7
  6298  01B4  29B7               	goto	l771
  6299  01B5  0141               	movlb	1	; select bank1
  6300  01B6  17A0               	bsf	___ftadd@sign^(0+128),7
  6301  01B7                     l771:	
  6302  01B7  0140               	movlb	0	; select bank0
  6303  01B8  1FC8               	btfss	___ftadd@f2+2,7
  6304  01B9  29BC               	goto	l772
  6305  01BA  0141               	movlb	1	; select bank1
  6306  01BB  1720               	bsf	___ftadd@sign^(0+128),6
  6307  01BC                     l772:	
  6308  01BC  0140               	movlb	0	; select bank0
  6309  01BD  17C4               	bsf	___ftadd@f1+1,7
  6310  01BE  30FF               	movlw	255
  6311  01BF  05C3               	andwf	___ftadd@f1,f
  6312  01C0  30FF               	movlw	255
  6313  01C1  05C4               	andwf	___ftadd@f1+1,f
  6314  01C2  3000               	movlw	0
  6315  01C3  05C5               	andwf	___ftadd@f1+2,f
  6316  01C4  17C7               	bsf	___ftadd@f2+1,7
  6317  01C5  30FF               	movlw	255
  6318  01C6  05C6               	andwf	___ftadd@f2,f
  6319  01C7  30FF               	movlw	255
  6320  01C8  05C7               	andwf	___ftadd@f2+1,f
  6321  01C9  3000               	movlw	0
  6322  01CA  05C8               	andwf	___ftadd@f2+2,f
  6323  01CB  0141               	movlb	1	; select bank1
  6324  01CC  0821               	movf	___ftadd@exp2^(0+128),w
  6325  01CD  0222               	subwf	___ftadd@exp1^(0+128),w
  6326  01CE  1803               	skipnc
  6327  01CF  29F6               	goto	l2927
  6328  01D0                     l2917:	
  6329  01D0  3001               	movlw	1
  6330  01D1                     u4115:	
  6331  01D1  0140               	movlb	0	; select bank0
  6332  01D2  35C6               	lslf	___ftadd@f2,f
  6333  01D3  0DC7               	rlf	___ftadd@f2+1,f
  6334  01D4  0DC8               	rlf	___ftadd@f2+2,f
  6335  01D5  0B89               	decfsz	9,f
  6336  01D6  29D1               	goto	u4115
  6337  01D7  3001               	movlw	1
  6338  01D8  0141               	movlb	1	; select bank1
  6339  01D9  02A1               	subwf	___ftadd@exp2^(0+128),f
  6340  01DA  0821               	movf	___ftadd@exp2^(0+128),w
  6341  01DB  0622               	xorwf	___ftadd@exp1^(0+128),w
  6342  01DC  1903               	skipnz
  6343  01DD  29F1               	goto	l2925
  6344  01DE  3001               	movlw	1
  6345  01DF  02A0               	subwf	___ftadd@sign^(0+128),f
  6346  01E0  0820               	movf	___ftadd@sign^(0+128),w
  6347  01E1  3907               	andlw	7
  6348  01E2  1903               	btfsc	3,2
  6349  01E3  29F1               	goto	l2925
  6350  01E4  29D0               	goto	l2917
  6351  01E5                     l2923:	
  6352  01E5  3001               	movlw	1
  6353  01E6                     u4145:	
  6354  01E6  0140               	movlb	0	; select bank0
  6355  01E7  36C5               	lsrf	___ftadd@f1+2,f
  6356  01E8  0CC4               	rrf	___ftadd@f1+1,f
  6357  01E9  0CC3               	rrf	___ftadd@f1,f
  6358  01EA  0B89               	decfsz	9,f
  6359  01EB  29E6               	goto	u4145
  6360  01EC  3001               	movlw	1
  6361  01ED  00C9               	movwf	??___ftadd
  6362  01EE  0849               	movf	??___ftadd,w
  6363  01EF  0141               	movlb	1	; select bank1
  6364  01F0  07A2               	addwf	___ftadd@exp1^(0+128),f
  6365  01F1                     l2925:	
  6366  01F1  0822               	movf	___ftadd@exp1^(0+128),w
  6367  01F2  0621               	xorwf	___ftadd@exp2^(0+128),w
  6368  01F3  1903               	btfsc	3,2
  6369  01F4  2A1F               	goto	l781
  6370  01F5  29E5               	goto	l2923
  6371  01F6                     l2927:	
  6372  01F6  0822               	movf	___ftadd@exp1^(0+128),w
  6373  01F7  0221               	subwf	___ftadd@exp2^(0+128),w
  6374  01F8  1803               	skipnc
  6375  01F9  2A1F               	goto	l781
  6376  01FA                     l2929:	
  6377  01FA  3001               	movlw	1
  6378  01FB                     u4175:	
  6379  01FB  0140               	movlb	0	; select bank0
  6380  01FC  35C3               	lslf	___ftadd@f1,f
  6381  01FD  0DC4               	rlf	___ftadd@f1+1,f
  6382  01FE  0DC5               	rlf	___ftadd@f1+2,f
  6383  01FF  0B89               	decfsz	9,f
  6384  0200  29FB               	goto	u4175
  6385  0201  3001               	movlw	1
  6386  0202  0141               	movlb	1	; select bank1
  6387  0203  02A2               	subwf	___ftadd@exp1^(0+128),f
  6388  0204  0821               	movf	___ftadd@exp2^(0+128),w
  6389  0205  0622               	xorwf	___ftadd@exp1^(0+128),w
  6390  0206  1903               	skipnz
  6391  0207  2A1B               	goto	l2937
  6392  0208  3001               	movlw	1
  6393  0209  02A0               	subwf	___ftadd@sign^(0+128),f
  6394  020A  0820               	movf	___ftadd@sign^(0+128),w
  6395  020B  3907               	andlw	7
  6396  020C  1903               	btfsc	3,2
  6397  020D  2A1B               	goto	l2937
  6398  020E  29FA               	goto	l2929
  6399  020F                     l2935:	
  6400  020F  3001               	movlw	1
  6401  0210                     u4205:	
  6402  0210  0140               	movlb	0	; select bank0
  6403  0211  36C8               	lsrf	___ftadd@f2+2,f
  6404  0212  0CC7               	rrf	___ftadd@f2+1,f
  6405  0213  0CC6               	rrf	___ftadd@f2,f
  6406  0214  0B89               	decfsz	9,f
  6407  0215  2A10               	goto	u4205
  6408  0216  3001               	movlw	1
  6409  0217  00C9               	movwf	??___ftadd
  6410  0218  0849               	movf	??___ftadd,w
  6411  0219  0141               	movlb	1	; select bank1
  6412  021A  07A1               	addwf	___ftadd@exp2^(0+128),f
  6413  021B                     l2937:	
  6414  021B  0822               	movf	___ftadd@exp1^(0+128),w
  6415  021C  0621               	xorwf	___ftadd@exp2^(0+128),w
  6416  021D  1D03               	skipz
  6417  021E  2A0F               	goto	l2935
  6418  021F                     l781:	
  6419  021F  1FA0               	btfss	___ftadd@sign^(0+128),7
  6420  0220  2A32               	goto	l2941
  6421  0221  30FF               	movlw	255
  6422  0222  0140               	movlb	0	; select bank0
  6423  0223  06C3               	xorwf	___ftadd@f1,f
  6424  0224  30FF               	movlw	255
  6425  0225  06C4               	xorwf	___ftadd@f1+1,f
  6426  0226  30FF               	movlw	255
  6427  0227  06C5               	xorwf	___ftadd@f1+2,f
  6428  0228  3001               	movlw	1
  6429  0229  07C3               	addwf	___ftadd@f1,f
  6430  022A  3000               	movlw	0
  6431  022B  1803               	skipnc
  6432  022C  3001               	movlw	1
  6433  022D  07C4               	addwf	___ftadd@f1+1,f
  6434  022E  3000               	movlw	0
  6435  022F  1803               	skipnc
  6436  0230  3001               	movlw	1
  6437  0231  07C5               	addwf	___ftadd@f1+2,f
  6438  0232                     l2941:	
  6439  0232  0141               	movlb	1	; select bank1
  6440  0233  1F20               	btfss	___ftadd@sign^(0+128),6
  6441  0234  2A46               	goto	l2945
  6442  0235  30FF               	movlw	255
  6443  0236  0140               	movlb	0	; select bank0
  6444  0237  06C6               	xorwf	___ftadd@f2,f
  6445  0238  30FF               	movlw	255
  6446  0239  06C7               	xorwf	___ftadd@f2+1,f
  6447  023A  30FF               	movlw	255
  6448  023B  06C8               	xorwf	___ftadd@f2+2,f
  6449  023C  3001               	movlw	1
  6450  023D  07C6               	addwf	___ftadd@f2,f
  6451  023E  3000               	movlw	0
  6452  023F  1803               	skipnc
  6453  0240  3001               	movlw	1
  6454  0241  07C7               	addwf	___ftadd@f2+1,f
  6455  0242  3000               	movlw	0
  6456  0243  1803               	skipnc
  6457  0244  3001               	movlw	1
  6458  0245  07C8               	addwf	___ftadd@f2+2,f
  6459  0246                     l2945:	
  6460  0246  0141               	movlb	1	; select bank1
  6461  0247  01A0               	clrf	___ftadd@sign^(0+128)
  6462  0248  0140               	movlb	0	; select bank0
  6463  0249  0843               	movf	___ftadd@f1,w
  6464  024A  07C6               	addwf	___ftadd@f2,f
  6465  024B  0844               	movf	___ftadd@f1+1,w
  6466  024C  3DC7               	addwfc	___ftadd@f2+1,f
  6467  024D  0845               	movf	___ftadd@f1+2,w
  6468  024E  3DC8               	addwfc	___ftadd@f2+2,f
  6469  024F  1FC8               	btfss	___ftadd@f2+2,7
  6470  0250  2A64               	goto	l2955
  6471  0251  30FF               	movlw	255
  6472  0252  06C6               	xorwf	___ftadd@f2,f
  6473  0253  30FF               	movlw	255
  6474  0254  06C7               	xorwf	___ftadd@f2+1,f
  6475  0255  30FF               	movlw	255
  6476  0256  06C8               	xorwf	___ftadd@f2+2,f
  6477  0257  3001               	movlw	1
  6478  0258  07C6               	addwf	___ftadd@f2,f
  6479  0259  3000               	movlw	0
  6480  025A  1803               	skipnc
  6481  025B  3001               	movlw	1
  6482  025C  07C7               	addwf	___ftadd@f2+1,f
  6483  025D  3000               	movlw	0
  6484  025E  1803               	skipnc
  6485  025F  3001               	movlw	1
  6486  0260  07C8               	addwf	___ftadd@f2+2,f
  6487  0261  0141               	movlb	1	; select bank1
  6488  0262  01A0               	clrf	___ftadd@sign^(0+128)
  6489  0263  0AA0               	incf	___ftadd@sign^(0+128),f
  6490  0264                     l2955:	
  6491  0264  0140               	movlb	0	; select bank0
  6492  0265  0846               	movf	___ftadd@f2,w
  6493  0266  00BB               	movwf	___ftpack@arg
  6494  0267  0847               	movf	___ftadd@f2+1,w
  6495  0268  00BC               	movwf	___ftpack@arg+1
  6496  0269  0848               	movf	___ftadd@f2+2,w
  6497  026A  00BD               	movwf	___ftpack@arg+2
  6498  026B  0141               	movlb	1	; select bank1
  6499  026C  0822               	movf	___ftadd@exp1^(0+128),w
  6500  026D  0140               	movlb	0	; select bank0
  6501  026E  00C9               	movwf	??___ftadd
  6502  026F  0849               	movf	??___ftadd,w
  6503  0270  00BE               	movwf	___ftpack@exp
  6504  0271  0141               	movlb	1	; select bank1
  6505  0272  0820               	movf	___ftadd@sign^(0+128),w
  6506  0273  0140               	movlb	0	; select bank0
  6507  0274  00CA               	movwf	??___ftadd+1
  6508  0275  084A               	movf	??___ftadd+1,w
  6509  0276  00BF               	movwf	___ftpack@sign
  6510  0277  318F  279B         	fcall	___ftpack
  6511  0279  0140               	movlb	0	; select bank0
  6512  027A  083B               	movf	?___ftpack,w
  6513  027B  00C3               	movwf	?___ftadd
  6514  027C  083C               	movf	?___ftpack+1,w
  6515  027D  00C4               	movwf	?___ftadd+1
  6516  027E  083D               	movf	?___ftpack+2,w
  6517  027F  00C5               	movwf	?___ftadd+2
  6518  0280  0008               	return
  6519  0281                     __end_of___ftadd:	
  6520                           
  6521                           	psect	text11
  6522  0F9B                     __ptext11:	
  6523 ;; *************** function ___ftpack *****************
  6524 ;; Defined at:
  6525 ;;		line 62 in file "C:\Program Files (x86)\Microchip\xc8\v1.45\sources\common\float.c"
  6526 ;; Parameters:    Size  Location     Type
  6527 ;;  arg             3   27[BANK0 ] unsigned um
  6528 ;;  exp             1   30[BANK0 ] unsigned char 
  6529 ;;  sign            1   31[BANK0 ] unsigned char 
  6530 ;; Auto vars:     Size  Location     Type
  6531 ;;		None
  6532 ;; Return value:  Size  Location     Type
  6533 ;;                  3   27[BANK0 ] float 
  6534 ;; Registers used:
  6535 ;;		wreg, status,2, status,0
  6536 ;; Tracked objects:
  6537 ;;		On entry : 0/0
  6538 ;;		On exit  : 0/0
  6539 ;;		Unchanged: 0/0
  6540 ;; Data sizes:     COMMON   BANK0   BANK1   BANK2   BANK3   BANK4   BANK5   BANK6   BANK7   BANK8   BANK9  BANK10  BANK1
      +1  BANK12  BANK13  BANK14  BANK15  BANK16  BANK17  BANK18  BANK19  BANK20  BANK21  BANK22  BANK23  BANK24  BANK25  BANK2
      +6  BANK27  BANK28  BANK29  BANK30  BANK31  BANK32  BANK33  BANK34  BANK35  BANK36  BANK37  BANK38  BANK39  BANK40  BANK4
      +1  BANK42  BANK43  BANK44  BANK45  BANK46  BANK47  BANK48  BANK49  BANK50
  6541 ;;      Params:         0       5       0       0       0       0       0       0       0       0       0       0       
      +0       0       0       0       0       0       0       0       0       0       0       0       0       0       0       
      +0       0       0       0       0       0       0       0       0       0       0       0       0       0       0       
      +0       0       0       0       0       0       0       0       0       0
  6542 ;;      Locals:         0       0       0       0       0       0       0       0       0       0       0       0       
      +0       0       0       0       0       0       0       0       0       0       0       0       0       0       0       
      +0       0       0       0       0       0       0       0       0       0       0       0       0       0       0       
      +0       0       0       0       0       0       0       0       0       0
  6543 ;;      Temps:          0       3       0       0       0       0       0       0       0       0       0       0       
      +0       0       0       0       0       0       0       0       0       0       0       0       0       0       0       
      +0       0       0       0       0       0       0       0       0       0       0       0       0       0       0       
      +0       0       0       0       0       0       0       0       0       0
  6544 ;;      Totals:         0       8       0       0       0       0       0       0       0       0       0       0       
      +0       0       0       0       0       0       0       0       0       0       0       0       0       0       0       
      +0       0       0       0       0       0       0       0       0       0       0       0       0       0       0       
      +0       0       0       0       0       0       0       0       0       0
  6545 ;;Total ram usage:        8 bytes
  6546 ;; Hardware stack levels used:    1
  6547 ;; Hardware stack levels required when called:    5
  6548 ;; This function calls:
  6549 ;;		Nothing
  6550 ;; This function is called by:
  6551 ;;		___ftadd
  6552 ;;		___ftdiv
  6553 ;;		___ftmul
  6554 ;;		___lwtoft
  6555 ;; This function uses a non-reentrant model
  6556 ;;
  6557                           
  6558                           
  6559                           ;psect for function ___ftpack
  6560  0F9B                     ___ftpack:	
  6561                           
  6562                           ;incstack = 0
  6563                           ; Regs used in ___ftpack: [wreg+status,2+status,0]
  6564  0F9B  0140               	movlb	0	; select bank0
  6565  0F9C  083E               	movf	___ftpack@exp,w
  6566  0F9D  1903               	btfsc	3,2
  6567  0F9E  2FA4               	goto	l2765
  6568  0F9F  083D               	movf	___ftpack@arg+2,w
  6569  0FA0  043C               	iorwf	___ftpack@arg+1,w
  6570  0FA1  043B               	iorwf	___ftpack@arg,w
  6571  0FA2  1D03               	skipz
  6572  0FA3  2FB5               	goto	l2771
  6573  0FA4                     l2765:	
  6574  0FA4  3000               	movlw	0
  6575  0FA5  00BB               	movwf	?___ftpack
  6576  0FA6  3000               	movlw	0
  6577  0FA7  00BC               	movwf	?___ftpack+1
  6578  0FA8  3000               	movlw	0
  6579  0FA9  00BD               	movwf	?___ftpack+2
  6580  0FAA  0008               	return
  6581  0FAB                     l2769:	
  6582  0FAB  3001               	movlw	1
  6583  0FAC  00C0               	movwf	??___ftpack
  6584  0FAD  0840               	movf	??___ftpack,w
  6585  0FAE  07BE               	addwf	___ftpack@exp,f
  6586  0FAF  3001               	movlw	1
  6587  0FB0                     u3715:	
  6588  0FB0  36BD               	lsrf	___ftpack@arg+2,f
  6589  0FB1  0CBC               	rrf	___ftpack@arg+1,f
  6590  0FB2  0CBB               	rrf	___ftpack@arg,f
  6591  0FB3  0B89               	decfsz	9,f
  6592  0FB4  2FB0               	goto	u3715
  6593  0FB5                     l2771:	
  6594  0FB5  30FE               	movlw	254
  6595  0FB6  053D               	andwf	___ftpack@arg+2,w
  6596  0FB7  1903               	btfsc	3,2
  6597  0FB8  2FCE               	goto	l750
  6598  0FB9  2FAB               	goto	l2769
  6599  0FBA                     l2773:	
  6600  0FBA  3001               	movlw	1
  6601  0FBB  00C0               	movwf	??___ftpack
  6602  0FBC  0840               	movf	??___ftpack,w
  6603  0FBD  07BE               	addwf	___ftpack@exp,f
  6604  0FBE  3001               	movlw	1
  6605  0FBF  07BB               	addwf	___ftpack@arg,f
  6606  0FC0  3000               	movlw	0
  6607  0FC1  1803               	skipnc
  6608  0FC2  3001               	movlw	1
  6609  0FC3  07BC               	addwf	___ftpack@arg+1,f
  6610  0FC4  3000               	movlw	0
  6611  0FC5  1803               	skipnc
  6612  0FC6  3001               	movlw	1
  6613  0FC7  07BD               	addwf	___ftpack@arg+2,f
  6614  0FC8  3001               	movlw	1
  6615  0FC9                     u3735:	
  6616  0FC9  36BD               	lsrf	___ftpack@arg+2,f
  6617  0FCA  0CBC               	rrf	___ftpack@arg+1,f
  6618  0FCB  0CBB               	rrf	___ftpack@arg,f
  6619  0FCC  0B89               	decfsz	9,f
  6620  0FCD  2FC9               	goto	u3735
  6621  0FCE                     l750:	
  6622  0FCE  30FF               	movlw	255
  6623  0FCF  053D               	andwf	___ftpack@arg+2,w
  6624  0FD0  1903               	btfsc	3,2
  6625  0FD1  2FDB               	goto	l2781
  6626  0FD2  2FBA               	goto	l2773
  6627  0FD3                     l2779:	
  6628  0FD3  3001               	movlw	1
  6629  0FD4  02BE               	subwf	___ftpack@exp,f
  6630  0FD5  3001               	movlw	1
  6631  0FD6                     u3755:	
  6632  0FD6  35BB               	lslf	___ftpack@arg,f
  6633  0FD7  0DBC               	rlf	___ftpack@arg+1,f
  6634  0FD8  0DBD               	rlf	___ftpack@arg+2,f
  6635  0FD9  0B89               	decfsz	9,f
  6636  0FDA  2FD6               	goto	u3755
  6637  0FDB                     l2781:	
  6638  0FDB  1BBC               	btfsc	___ftpack@arg+1,7
  6639  0FDC  2FE1               	goto	l757
  6640  0FDD  3002               	movlw	2
  6641  0FDE  023E               	subwf	___ftpack@exp,w
  6642  0FDF  1803               	skipnc
  6643  0FE0  2FD3               	goto	l2779
  6644  0FE1                     l757:	
  6645  0FE1  183E               	btfsc	___ftpack@exp,0
  6646  0FE2  2FE9               	goto	l758
  6647  0FE3  30FF               	movlw	255
  6648  0FE4  05BB               	andwf	___ftpack@arg,f
  6649  0FE5  307F               	movlw	127
  6650  0FE6  05BC               	andwf	___ftpack@arg+1,f
  6651  0FE7  30FF               	movlw	255
  6652  0FE8  05BD               	andwf	___ftpack@arg+2,f
  6653  0FE9                     l758:	
  6654  0FE9  1003               	clrc
  6655  0FEA  0CBE               	rrf	___ftpack@exp,f
  6656  0FEB  083E               	movf	___ftpack@exp,w
  6657  0FEC  00C0               	movwf	??___ftpack
  6658  0FED  01C1               	clrf	??___ftpack+1
  6659  0FEE  01C2               	clrf	??___ftpack+2
  6660  0FEF  3010               	movlw	16
  6661  0FF0                     u3795:	
  6662  0FF0  35C0               	lslf	??___ftpack,f
  6663  0FF1  0DC1               	rlf	??___ftpack+1,f
  6664  0FF2  0DC2               	rlf	??___ftpack+2,f
  6665  0FF3  0B89               	decfsz	9,f
  6666  0FF4  2FF0               	goto	u3795
  6667  0FF5  0840               	movf	??___ftpack,w
  6668  0FF6  04BB               	iorwf	___ftpack@arg,f
  6669  0FF7  0841               	movf	??___ftpack+1,w
  6670  0FF8  04BC               	iorwf	___ftpack@arg+1,f
  6671  0FF9  0842               	movf	??___ftpack+2,w
  6672  0FFA  04BD               	iorwf	___ftpack@arg+2,f
  6673  0FFB  083F               	movf	___ftpack@sign,w
  6674  0FFC  1903               	btfsc	3,2
  6675  0FFD  0008               	return
  6676  0FFE  17BD               	bsf	___ftpack@arg+2,7
  6677  0FFF  0008               	return
  6678  1000                     __end_of___ftpack:	
  6679                           
  6680                           	psect	text12
  6681  0D84                     __ptext12:	
  6682 ;; *************** function _SYSTEM_Initialize *****************
  6683 ;; Defined at:
  6684 ;;		line 83 in file "mcc_generated_files/mcc.c"
  6685 ;; Parameters:    Size  Location     Type
  6686 ;;		None
  6687 ;; Auto vars:     Size  Location     Type
  6688 ;;		None
  6689 ;; Return value:  Size  Location     Type
  6690 ;;                  1    wreg      void 
  6691 ;; Registers used:
  6692 ;;		wreg, status,2, status,0, pclath, cstack
  6693 ;; Tracked objects:
  6694 ;;		On entry : 0/0
  6695 ;;		On exit  : 0/0
  6696 ;;		Unchanged: 0/0
  6697 ;; Data sizes:     COMMON   BANK0   BANK1   BANK2   BANK3   BANK4   BANK5   BANK6   BANK7   BANK8   BANK9  BANK10  BANK1
      +1  BANK12  BANK13  BANK14  BANK15  BANK16  BANK17  BANK18  BANK19  BANK20  BANK21  BANK22  BANK23  BANK24  BANK25  BANK2
      +6  BANK27  BANK28  BANK29  BANK30  BANK31  BANK32  BANK33  BANK34  BANK35  BANK36  BANK37  BANK38  BANK39  BANK40  BANK4
      +1  BANK42  BANK43  BANK44  BANK45  BANK46  BANK47  BANK48  BANK49  BANK50
  6698 ;;      Params:         0       0       0       0       0       0       0       0       0       0       0       0       
      +0       0       0       0       0       0       0       0       0       0       0       0       0       0       0       
      +0       0       0       0       0       0       0       0       0       0       0       0       0       0       0       
      +0       0       0       0       0       0       0       0       0       0
  6699 ;;      Locals:         0       0       0       0       0       0       0       0       0       0       0       0       
      +0       0       0       0       0       0       0       0       0       0       0       0       0       0       0       
      +0       0       0       0       0       0       0       0       0       0       0       0       0       0       0       
      +0       0       0       0       0       0       0       0       0       0
  6700 ;;      Temps:          0       0       0       0       0       0       0       0       0       0       0       0       
      +0       0       0       0       0       0       0       0       0       0       0       0       0       0       0       
      +0       0       0       0       0       0       0       0       0       0       0       0       0       0       0       
      +0       0       0       0       0       0       0       0       0       0
  6701 ;;      Totals:         0       0       0       0       0       0       0       0       0       0       0       0       
      +0       0       0       0       0       0       0       0       0       0       0       0       0       0       0       
      +0       0       0       0       0       0       0       0       0       0       0       0       0       0       0       
      +0       0       0       0       0       0       0       0       0       0
  6702 ;;Total ram usage:        0 bytes
  6703 ;; Hardware stack levels used:    1
  6704 ;; Hardware stack levels required when called:    7
  6705 ;; This function calls:
  6706 ;;		_ADCC_Initialize
  6707 ;;		_EUSART_Initialize
  6708 ;;		_OSCILLATOR_Initialize
  6709 ;;		_PIN_MANAGER_Initialize
  6710 ;;		_TMR2_Initialize
  6711 ;; This function is called by:
  6712 ;;		_main
  6713 ;; This function uses a non-reentrant model
  6714 ;;
  6715                           
  6716                           
  6717                           ;psect for function _SYSTEM_Initialize
  6718  0D84                     _SYSTEM_Initialize:	
  6719                           
  6720                           ;mcc.c: 86: PIN_MANAGER_Initialize();
  6721                           
  6722                           ;incstack = 0
  6723                           ; Regs used in _SYSTEM_Initialize: [wreg+status,2+status,0+pclath+cstack]
  6724  0D84  318E  2672  318D   	fcall	_PIN_MANAGER_Initialize
  6725                           
  6726                           ;mcc.c: 87: OSCILLATOR_Initialize();
  6727  0D87  318D  2566  318D   	fcall	_OSCILLATOR_Initialize
  6728                           
  6729                           ;mcc.c: 88: ADCC_Initialize();
  6730  0D8A  318D  25C0  318D   	fcall	_ADCC_Initialize
  6731                           
  6732                           ;mcc.c: 89: TMR2_Initialize();
  6733  0D8D  318D  25A8  318D   	fcall	_TMR2_Initialize
  6734                           
  6735                           ;mcc.c: 90: EUSART_Initialize();
  6736  0D90  318D  2579         	fcall	_EUSART_Initialize
  6737  0D92  0008               	return
  6738  0D93                     __end_of_SYSTEM_Initialize:	
  6739                           
  6740                           	psect	text13
  6741  0DA8                     __ptext13:	
  6742 ;; *************** function _TMR2_Initialize *****************
  6743 ;; Defined at:
  6744 ;;		line 66 in file "mcc_generated_files/tmr2.c"
  6745 ;; Parameters:    Size  Location     Type
  6746 ;;		None
  6747 ;; Auto vars:     Size  Location     Type
  6748 ;;		None
  6749 ;; Return value:  Size  Location     Type
  6750 ;;                  1    wreg      void 
  6751 ;; Registers used:
  6752 ;;		wreg, status,2, status,0, pclath, cstack
  6753 ;; Tracked objects:
  6754 ;;		On entry : 0/0
  6755 ;;		On exit  : 0/0
  6756 ;;		Unchanged: 0/0
  6757 ;; Data sizes:     COMMON   BANK0   BANK1   BANK2   BANK3   BANK4   BANK5   BANK6   BANK7   BANK8   BANK9  BANK10  BANK1
      +1  BANK12  BANK13  BANK14  BANK15  BANK16  BANK17  BANK18  BANK19  BANK20  BANK21  BANK22  BANK23  BANK24  BANK25  BANK2
      +6  BANK27  BANK28  BANK29  BANK30  BANK31  BANK32  BANK33  BANK34  BANK35  BANK36  BANK37  BANK38  BANK39  BANK40  BANK4
      +1  BANK42  BANK43  BANK44  BANK45  BANK46  BANK47  BANK48  BANK49  BANK50
  6758 ;;      Params:         0       0       0       0       0       0       0       0       0       0       0       0       
      +0       0       0       0       0       0       0       0       0       0       0       0       0       0       0       
      +0       0       0       0       0       0       0       0       0       0       0       0       0       0       0       
      +0       0       0       0       0       0       0       0       0       0
  6759 ;;      Locals:         0       0       0       0       0       0       0       0       0       0       0       0       
      +0       0       0       0       0       0       0       0       0       0       0       0       0       0       0       
      +0       0       0       0       0       0       0       0       0       0       0       0       0       0       0       
      +0       0       0       0       0       0       0       0       0       0
  6760 ;;      Temps:          0       0       0       0       0       0       0       0       0       0       0       0       
      +0       0       0       0       0       0       0       0       0       0       0       0       0       0       0       
      +0       0       0       0       0       0       0       0       0       0       0       0       0       0       0       
      +0       0       0       0       0       0       0       0       0       0
  6761 ;;      Totals:         0       0       0       0       0       0       0       0       0       0       0       0       
      +0       0       0       0       0       0       0       0       0       0       0       0       0       0       0       
      +0       0       0       0       0       0       0       0       0       0       0       0       0       0       0       
      +0       0       0       0       0       0       0       0       0       0
  6762 ;;Total ram usage:        0 bytes
  6763 ;; Hardware stack levels used:    1
  6764 ;; Hardware stack levels required when called:    6
  6765 ;; This function calls:
  6766 ;;		_TMR2_SetInterruptHandler
  6767 ;;		_TMR2_Start
  6768 ;; This function is called by:
  6769 ;;		_SYSTEM_Initialize
  6770 ;; This function uses a non-reentrant model
  6771 ;;
  6772                           
  6773                           
  6774                           ;psect for function _TMR2_Initialize
  6775  0DA8                     _TMR2_Initialize:	
  6776                           
  6777                           ;tmr2.c: 71: T2CON = 0x33;
  6778                           
  6779                           ;incstack = 0
  6780                           ; Regs used in _TMR2_Initialize: [wreg+status,2+status,0+pclath+cstack]
  6781  0DA8  3033               	movlw	51
  6782  0DA9  0145               	movlb	5	; select bank5
  6783  0DAA  008E               	movwf	14	;volatile
  6784                           
  6785                           ;tmr2.c: 74: T2CLKCON = 0x04;
  6786  0DAB  3004               	movlw	4
  6787  0DAC  0090               	movwf	16	;volatile
  6788                           
  6789                           ;tmr2.c: 77: T2HLT = 0x00;
  6790  0DAD  018F               	clrf	15	;volatile
  6791                           
  6792                           ;tmr2.c: 80: T2RST = 0x00;
  6793  0DAE  0191               	clrf	17	;volatile
  6794                           
  6795                           ;tmr2.c: 83: T2PR = 0x60;
  6796  0DAF  3060               	movlw	96
  6797  0DB0  008D               	movwf	13	;volatile
  6798                           
  6799                           ;tmr2.c: 86: T2TMR = 0x00;
  6800  0DB1  018C               	clrf	12	;volatile
  6801                           
  6802                           ;tmr2.c: 89: PIR4bits.TMR2IF = 0;
  6803  0DB2  014E               	movlb	14	; select bank14
  6804  0DB3  1090               	bcf	16,1	;volatile
  6805                           
  6806                           ;tmr2.c: 92: PIE4bits.TMR2IE = 1;
  6807  0DB4  149A               	bsf	26,1	;volatile
  6808                           
  6809                           ;tmr2.c: 95: TMR2_SetInterruptHandler(TMR2_DefaultInterruptHandler);
  6810  0DB5  3000               	movlw	0
  6811  0DB6  0140               	movlb	0	; select bank0
  6812  0DB7  00BB               	movwf	TMR2_SetInterruptHandler@InterruptHandler
  6813  0DB8  3000               	movlw	0
  6814  0DB9  00BC               	movwf	TMR2_SetInterruptHandler@InterruptHandler+1
  6815  0DBA  318D  2541  318D   	fcall	_TMR2_SetInterruptHandler
  6816                           
  6817                           ;tmr2.c: 98: TMR2_Start();
  6818  0DBD  318D  253E         	fcall	_TMR2_Start
  6819  0DBF  0008               	return
  6820  0DC0                     __end_of_TMR2_Initialize:	
  6821                           
  6822                           	psect	text14
  6823  0D3E                     __ptext14:	
  6824 ;; *************** function _TMR2_Start *****************
  6825 ;; Defined at:
  6826 ;;		line 113 in file "mcc_generated_files/tmr2.c"
  6827 ;; Parameters:    Size  Location     Type
  6828 ;;		None
  6829 ;; Auto vars:     Size  Location     Type
  6830 ;;		None
  6831 ;; Return value:  Size  Location     Type
  6832 ;;                  1    wreg      void 
  6833 ;; Registers used:
  6834 ;;		None
  6835 ;; Tracked objects:
  6836 ;;		On entry : 0/0
  6837 ;;		On exit  : 0/0
  6838 ;;		Unchanged: 0/0
  6839 ;; Data sizes:     COMMON   BANK0   BANK1   BANK2   BANK3   BANK4   BANK5   BANK6   BANK7   BANK8   BANK9  BANK10  BANK1
      +1  BANK12  BANK13  BANK14  BANK15  BANK16  BANK17  BANK18  BANK19  BANK20  BANK21  BANK22  BANK23  BANK24  BANK25  BANK2
      +6  BANK27  BANK28  BANK29  BANK30  BANK31  BANK32  BANK33  BANK34  BANK35  BANK36  BANK37  BANK38  BANK39  BANK40  BANK4
      +1  BANK42  BANK43  BANK44  BANK45  BANK46  BANK47  BANK48  BANK49  BANK50
  6840 ;;      Params:         0       0       0       0       0       0       0       0       0       0       0       0       
      +0       0       0       0       0       0       0       0       0       0       0       0       0       0       0       
      +0       0       0       0       0       0       0       0       0       0       0       0       0       0       0       
      +0       0       0       0       0       0       0       0       0       0
  6841 ;;      Locals:         0       0       0       0       0       0       0       0       0       0       0       0       
      +0       0       0       0       0       0       0       0       0       0       0       0       0       0       0       
      +0       0       0       0       0       0       0       0       0       0       0       0       0       0       0       
      +0       0       0       0       0       0       0       0       0       0
  6842 ;;      Temps:          0       0       0       0       0       0       0       0       0       0       0       0       
      +0       0       0       0       0       0       0       0       0       0       0       0       0       0       0       
      +0       0       0       0       0       0       0       0       0       0       0       0       0       0       0       
      +0       0       0       0       0       0       0       0       0       0
  6843 ;;      Totals:         0       0       0       0       0       0       0       0       0       0       0       0       
      +0       0       0       0       0       0       0       0       0       0       0       0       0       0       0       
      +0       0       0       0       0       0       0       0       0       0       0       0       0       0       0       
      +0       0       0       0       0       0       0       0       0       0
  6844 ;;Total ram usage:        0 bytes
  6845 ;; Hardware stack levels used:    1
  6846 ;; Hardware stack levels required when called:    5
  6847 ;; This function calls:
  6848 ;;		Nothing
  6849 ;; This function is called by:
  6850 ;;		_TMR2_Initialize
  6851 ;;		_TMR2_StartTimer
  6852 ;; This function uses a non-reentrant model
  6853 ;;
  6854                           
  6855                           
  6856                           ;psect for function _TMR2_Start
  6857  0D3E                     _TMR2_Start:	
  6858                           
  6859                           ;tmr2.c: 116: T2CONbits.TMR2ON = 1;
  6860                           
  6861                           ;incstack = 0
  6862                           ; Regs used in _TMR2_Start: []
  6863  0D3E  0145               	movlb	5	; select bank5
  6864  0D3F  178E               	bsf	14,7	;volatile
  6865  0D40  0008               	return
  6866  0D41                     __end_of_TMR2_Start:	
  6867                           
  6868                           	psect	text15
  6869  0D41                     __ptext15:	
  6870 ;; *************** function _TMR2_SetInterruptHandler *****************
  6871 ;; Defined at:
  6872 ;;		line 186 in file "mcc_generated_files/tmr2.c"
  6873 ;; Parameters:    Size  Location     Type
  6874 ;;  InterruptHan    2   27[BANK0 ] PTR FTN()void 
  6875 ;;		 -> TMR2_DefaultInterruptHandler(1), 
  6876 ;; Auto vars:     Size  Location     Type
  6877 ;;		None
  6878 ;; Return value:  Size  Location     Type
  6879 ;;                  1    wreg      void 
  6880 ;; Registers used:
  6881 ;;		wreg
  6882 ;; Tracked objects:
  6883 ;;		On entry : 0/0
  6884 ;;		On exit  : 0/0
  6885 ;;		Unchanged: 0/0
  6886 ;; Data sizes:     COMMON   BANK0   BANK1   BANK2   BANK3   BANK4   BANK5   BANK6   BANK7   BANK8   BANK9  BANK10  BANK1
      +1  BANK12  BANK13  BANK14  BANK15  BANK16  BANK17  BANK18  BANK19  BANK20  BANK21  BANK22  BANK23  BANK24  BANK25  BANK2
      +6  BANK27  BANK28  BANK29  BANK30  BANK31  BANK32  BANK33  BANK34  BANK35  BANK36  BANK37  BANK38  BANK39  BANK40  BANK4
      +1  BANK42  BANK43  BANK44  BANK45  BANK46  BANK47  BANK48  BANK49  BANK50
  6887 ;;      Params:         0       2       0       0       0       0       0       0       0       0       0       0       
      +0       0       0       0       0       0       0       0       0       0       0       0       0       0       0       
      +0       0       0       0       0       0       0       0       0       0       0       0       0       0       0       
      +0       0       0       0       0       0       0       0       0       0
  6888 ;;      Locals:         0       0       0       0       0       0       0       0       0       0       0       0       
      +0       0       0       0       0       0       0       0       0       0       0       0       0       0       0       
      +0       0       0       0       0       0       0       0       0       0       0       0       0       0       0       
      +0       0       0       0       0       0       0       0       0       0
  6889 ;;      Temps:          0       0       0       0       0       0       0       0       0       0       0       0       
      +0       0       0       0       0       0       0       0       0       0       0       0       0       0       0       
      +0       0       0       0       0       0       0       0       0       0       0       0       0       0       0       
      +0       0       0       0       0       0       0       0       0       0
  6890 ;;      Totals:         0       2       0       0       0       0       0       0       0       0       0       0       
      +0       0       0       0       0       0       0       0       0       0       0       0       0       0       0       
      +0       0       0       0       0       0       0       0       0       0       0       0       0       0       0       
      +0       0       0       0       0       0       0       0       0       0
  6891 ;;Total ram usage:        2 bytes
  6892 ;; Hardware stack levels used:    1
  6893 ;; Hardware stack levels required when called:    5
  6894 ;; This function calls:
  6895 ;;		Nothing
  6896 ;; This function is called by:
  6897 ;;		_TMR2_Initialize
  6898 ;; This function uses a non-reentrant model
  6899 ;;
  6900                           
  6901                           
  6902                           ;psect for function _TMR2_SetInterruptHandler
  6903  0D41                     _TMR2_SetInterruptHandler:	
  6904                           
  6905                           ;tmr2.c: 187: TMR2_InterruptHandler = InterruptHandler;
  6906                           
  6907                           ;incstack = 0
  6908                           ; Regs used in _TMR2_SetInterruptHandler: [wreg]
  6909  0D41  0140               	movlb	0	; select bank0
  6910  0D42  083C               	movf	TMR2_SetInterruptHandler@InterruptHandler+1,w
  6911  0D43  00D3               	movwf	_TMR2_InterruptHandler+1
  6912  0D44  083B               	movf	TMR2_SetInterruptHandler@InterruptHandler,w
  6913  0D45  00D2               	movwf	_TMR2_InterruptHandler
  6914  0D46  0008               	return
  6915  0D47                     __end_of_TMR2_SetInterruptHandler:	
  6916                           
  6917                           	psect	text16
  6918  0E72                     __ptext16:	
  6919 ;; *************** function _PIN_MANAGER_Initialize *****************
  6920 ;; Defined at:
  6921 ;;		line 52 in file "mcc_generated_files/pin_manager.c"
  6922 ;; Parameters:    Size  Location     Type
  6923 ;;		None
  6924 ;; Auto vars:     Size  Location     Type
  6925 ;;  state           1   27[BANK0 ] unsigned char 
  6926 ;; Return value:  Size  Location     Type
  6927 ;;                  1    wreg      void 
  6928 ;; Registers used:
  6929 ;;		wreg, status,2, status,0
  6930 ;; Tracked objects:
  6931 ;;		On entry : 0/0
  6932 ;;		On exit  : 0/0
  6933 ;;		Unchanged: 0/0
  6934 ;; Data sizes:     COMMON   BANK0   BANK1   BANK2   BANK3   BANK4   BANK5   BANK6   BANK7   BANK8   BANK9  BANK10  BANK1
      +1  BANK12  BANK13  BANK14  BANK15  BANK16  BANK17  BANK18  BANK19  BANK20  BANK21  BANK22  BANK23  BANK24  BANK25  BANK2
      +6  BANK27  BANK28  BANK29  BANK30  BANK31  BANK32  BANK33  BANK34  BANK35  BANK36  BANK37  BANK38  BANK39  BANK40  BANK4
      +1  BANK42  BANK43  BANK44  BANK45  BANK46  BANK47  BANK48  BANK49  BANK50
  6935 ;;      Params:         0       0       0       0       0       0       0       0       0       0       0       0       
      +0       0       0       0       0       0       0       0       0       0       0       0       0       0       0       
      +0       0       0       0       0       0       0       0       0       0       0       0       0       0       0       
      +0       0       0       0       0       0       0       0       0       0
  6936 ;;      Locals:         0       1       0       0       0       0       0       0       0       0       0       0       
      +0       0       0       0       0       0       0       0       0       0       0       0       0       0       0       
      +0       0       0       0       0       0       0       0       0       0       0       0       0       0       0       
      +0       0       0       0       0       0       0       0       0       0
  6937 ;;      Temps:          0       0       0       0       0       0       0       0       0       0       0       0       
      +0       0       0       0       0       0       0       0       0       0       0       0       0       0       0       
      +0       0       0       0       0       0       0       0       0       0       0       0       0       0       0       
      +0       0       0       0       0       0       0       0       0       0
  6938 ;;      Totals:         0       1       0       0       0       0       0       0       0       0       0       0       
      +0       0       0       0       0       0       0       0       0       0       0       0       0       0       0       
      +0       0       0       0       0       0       0       0       0       0       0       0       0       0       0       
      +0       0       0       0       0       0       0       0       0       0
  6939 ;;Total ram usage:        1 bytes
  6940 ;; Hardware stack levels used:    1
  6941 ;; Hardware stack levels required when called:    5
  6942 ;; This function calls:
  6943 ;;		Nothing
  6944 ;; This function is called by:
  6945 ;;		_SYSTEM_Initialize
  6946 ;; This function uses a non-reentrant model
  6947 ;;
  6948                           
  6949                           
  6950                           ;psect for function _PIN_MANAGER_Initialize
  6951  0E72                     _PIN_MANAGER_Initialize:	
  6952                           
  6953                           ;pin_manager.c: 57: LATA = 0x00;
  6954                           
  6955                           ;incstack = 0
  6956                           ; Regs used in _PIN_MANAGER_Initialize: [wreg+status,2+status,0]
  6957  0E72  0140               	movlb	0	; select bank0
  6958  0E73  0196               	clrf	22	;volatile
  6959                           
  6960                           ;pin_manager.c: 58: LATB = 0x00;
  6961  0E74  0197               	clrf	23	;volatile
  6962                           
  6963                           ;pin_manager.c: 59: LATC = 0x00;
  6964  0E75  0198               	clrf	24	;volatile
  6965                           
  6966                           ;pin_manager.c: 64: TRISA = 0xFF;
  6967  0E76  30FF               	movlw	255
  6968  0E77  0091               	movwf	17	;volatile
  6969                           
  6970                           ;pin_manager.c: 65: TRISB = 0xFF;
  6971  0E78  30FF               	movlw	255
  6972  0E79  0092               	movwf	18	;volatile
  6973                           
  6974                           ;pin_manager.c: 66: TRISC = 0x0E;
  6975  0E7A  300E               	movlw	14
  6976  0E7B  0093               	movwf	19	;volatile
  6977                           
  6978                           ;pin_manager.c: 71: ANSELC = 0x05;
  6979  0E7C  3005               	movlw	5
  6980  0E7D  017E               	movlb	62	; select bank62
  6981  0E7E  00CE               	movwf	78	;volatile
  6982                           
  6983                           ;pin_manager.c: 72: ANSELB = 0xFF;
  6984  0E7F  30FF               	movlw	255
  6985  0E80  00C3               	movwf	67	;volatile
  6986                           
  6987                           ;pin_manager.c: 73: ANSELA = 0x3D;
  6988  0E81  303D               	movlw	61
  6989  0E82  00B8               	movwf	56	;volatile
  6990                           
  6991                           ;pin_manager.c: 78: WPUB = 0x00;
  6992  0E83  01C4               	clrf	68	;volatile
  6993                           
  6994                           ;pin_manager.c: 79: WPUA = 0x00;
  6995  0E84  01B9               	clrf	57	;volatile
  6996                           
  6997                           ;pin_manager.c: 80: WPUC = 0x00;
  6998  0E85  01CF               	clrf	79	;volatile
  6999                           
  7000                           ;pin_manager.c: 85: ODCONA = 0x00;
  7001  0E86  01BA               	clrf	58	;volatile
  7002                           
  7003                           ;pin_manager.c: 86: ODCONB = 0x00;
  7004  0E87  01C5               	clrf	69	;volatile
  7005                           
  7006                           ;pin_manager.c: 87: ODCONC = 0x00;
  7007  0E88  01D0               	clrf	80	;volatile
  7008                           
  7009                           ;pin_manager.c: 94: bool state = (unsigned char)GIE;
  7010  0E89  3000               	movlw	0
  7011  0E8A  1B8B               	btfsc	11,7	;volatile
  7012  0E8B  3001               	movlw	1
  7013  0E8C  0140               	movlb	0	; select bank0
  7014  0E8D  00BB               	movwf	PIN_MANAGER_Initialize@state
  7015                           
  7016                           ;pin_manager.c: 95: GIE = 0;
  7017  0E8E  138B               	bcf	11,7	;volatile
  7018                           
  7019                           ;pin_manager.c: 96: PPSLOCK = 0x55;
  7020  0E8F  3055               	movlw	85
  7021  0E90  017D               	movlb	61	; select bank61
  7022  0E91  008F               	movwf	15	;volsfr
  7023                           
  7024                           ;pin_manager.c: 97: PPSLOCK = 0xAA;
  7025  0E92  30AA               	movlw	170
  7026  0E93  008F               	movwf	15	;volsfr
  7027                           
  7028                           ;pin_manager.c: 98: PPSLOCKbits.PPSLOCKED = 0x00;
  7029  0E94  100F               	bcf	15,0	;volsfr
  7030                           
  7031                           ;pin_manager.c: 100: T2AINPPSbits.T2AINPPS = 0x13;
  7032  0E95  081C               	movf	28,w	;volatile
  7033  0E96  39E0               	andlw	-32
  7034  0E97  3813               	iorlw	19
  7035  0E98  009C               	movwf	28	;volatile
  7036                           
  7037                           ;pin_manager.c: 101: RC0PPS = 0x10;
  7038  0E99  3010               	movlw	16
  7039  0E9A  017E               	movlb	62	; select bank62
  7040  0E9B  00A0               	movwf	32	;volatile
  7041                           
  7042                           ;pin_manager.c: 102: RXPPSbits.RXPPS = 0x11;
  7043  0E9C  017D               	movlb	61	; select bank61
  7044  0E9D  084B               	movf	75,w	;volatile
  7045  0E9E  39E0               	andlw	-32
  7046  0E9F  3811               	iorlw	17
  7047  0EA0  00CB               	movwf	75	;volatile
  7048                           
  7049                           ;pin_manager.c: 104: PPSLOCK = 0x55;
  7050  0EA1  3055               	movlw	85
  7051  0EA2  008F               	movwf	15	;volsfr
  7052                           
  7053                           ;pin_manager.c: 105: PPSLOCK = 0xAA;
  7054  0EA3  30AA               	movlw	170
  7055  0EA4  008F               	movwf	15	;volsfr
  7056                           
  7057                           ;pin_manager.c: 106: PPSLOCKbits.PPSLOCKED = 0x01;
  7058  0EA5  140F               	bsf	15,0	;volsfr
  7059                           
  7060                           ;pin_manager.c: 108: GIE = state;
  7061  0EA6  0140               	movlb	0	; select bank0
  7062  0EA7  1C3B               	btfss	PIN_MANAGER_Initialize@state,0
  7063  0EA8  2EAB               	goto	u2130
  7064  0EA9  178B               	bsf	11,7	;volatile
  7065  0EAA  0008               	return
  7066  0EAB                     u2130:	
  7067  0EAB  138B               	bcf	11,7	;volatile
  7068  0EAC  0008               	return
  7069  0EAD                     __end_of_PIN_MANAGER_Initialize:	
  7070                           
  7071                           	psect	text17
  7072  0D66                     __ptext17:	
  7073 ;; *************** function _OSCILLATOR_Initialize *****************
  7074 ;; Defined at:
  7075 ;;		line 93 in file "mcc_generated_files/mcc.c"
  7076 ;; Parameters:    Size  Location     Type
  7077 ;;		None
  7078 ;; Auto vars:     Size  Location     Type
  7079 ;;		None
  7080 ;; Return value:  Size  Location     Type
  7081 ;;                  1    wreg      void 
  7082 ;; Registers used:
  7083 ;;		wreg, status,2
  7084 ;; Tracked objects:
  7085 ;;		On entry : 0/0
  7086 ;;		On exit  : 0/0
  7087 ;;		Unchanged: 0/0
  7088 ;; Data sizes:     COMMON   BANK0   BANK1   BANK2   BANK3   BANK4   BANK5   BANK6   BANK7   BANK8   BANK9  BANK10  BANK1
      +1  BANK12  BANK13  BANK14  BANK15  BANK16  BANK17  BANK18  BANK19  BANK20  BANK21  BANK22  BANK23  BANK24  BANK25  BANK2
      +6  BANK27  BANK28  BANK29  BANK30  BANK31  BANK32  BANK33  BANK34  BANK35  BANK36  BANK37  BANK38  BANK39  BANK40  BANK4
      +1  BANK42  BANK43  BANK44  BANK45  BANK46  BANK47  BANK48  BANK49  BANK50
  7089 ;;      Params:         0       0       0       0       0       0       0       0       0       0       0       0       
      +0       0       0       0       0       0       0       0       0       0       0       0       0       0       0       
      +0       0       0       0       0       0       0       0       0       0       0       0       0       0       0       
      +0       0       0       0       0       0       0       0       0       0
  7090 ;;      Locals:         0       0       0       0       0       0       0       0       0       0       0       0       
      +0       0       0       0       0       0       0       0       0       0       0       0       0       0       0       
      +0       0       0       0       0       0       0       0       0       0       0       0       0       0       0       
      +0       0       0       0       0       0       0       0       0       0
  7091 ;;      Temps:          0       0       0       0       0       0       0       0       0       0       0       0       
      +0       0       0       0       0       0       0       0       0       0       0       0       0       0       0       
      +0       0       0       0       0       0       0       0       0       0       0       0       0       0       0       
      +0       0       0       0       0       0       0       0       0       0
  7092 ;;      Totals:         0       0       0       0       0       0       0       0       0       0       0       0       
      +0       0       0       0       0       0       0       0       0       0       0       0       0       0       0       
      +0       0       0       0       0       0       0       0       0       0       0       0       0       0       0       
      +0       0       0       0       0       0       0       0       0       0
  7093 ;;Total ram usage:        0 bytes
  7094 ;; Hardware stack levels used:    1
  7095 ;; Hardware stack levels required when called:    5
  7096 ;; This function calls:
  7097 ;;		Nothing
  7098 ;; This function is called by:
  7099 ;;		_SYSTEM_Initialize
  7100 ;; This function uses a non-reentrant model
  7101 ;;
  7102                           
  7103                           
  7104                           ;psect for function _OSCILLATOR_Initialize
  7105  0D66                     _OSCILLATOR_Initialize:	
  7106                           
  7107                           ;mcc.c: 96: OSCCON1 = 0x60;
  7108                           
  7109                           ;incstack = 0
  7110                           ; Regs used in _OSCILLATOR_Initialize: [wreg+status,2]
  7111  0D66  3060               	movlw	96
  7112  0D67  0151               	movlb	17	; select bank17
  7113  0D68  008D               	movwf	13	;volatile
  7114                           
  7115                           ;mcc.c: 98: OSCCON3 = 0x00;
  7116  0D69  018F               	clrf	15	;volatile
  7117                           
  7118                           ;mcc.c: 100: OSCEN = 0x00;
  7119  0D6A  0191               	clrf	17	;volatile
  7120                           
  7121                           ;mcc.c: 102: OSCFRQ = 0x02;
  7122  0D6B  3002               	movlw	2
  7123  0D6C  0093               	movwf	19	;volatile
  7124                           
  7125                           ;mcc.c: 104: OSCTUNE = 0x00;
  7126  0D6D  0192               	clrf	18	;volatile
  7127  0D6E  0008               	return
  7128  0D6F                     __end_of_OSCILLATOR_Initialize:	
  7129                           
  7130                           	psect	text18
  7131  0D79                     __ptext18:	
  7132 ;; *************** function _EUSART_Initialize *****************
  7133 ;; Defined at:
  7134 ;;		line 55 in file "mcc_generated_files/eusart.c"
  7135 ;; Parameters:    Size  Location     Type
  7136 ;;		None
  7137 ;; Auto vars:     Size  Location     Type
  7138 ;;		None
  7139 ;; Return value:  Size  Location     Type
  7140 ;;                  1    wreg      void 
  7141 ;; Registers used:
  7142 ;;		wreg, status,2
  7143 ;; Tracked objects:
  7144 ;;		On entry : 0/0
  7145 ;;		On exit  : 0/0
  7146 ;;		Unchanged: 0/0
  7147 ;; Data sizes:     COMMON   BANK0   BANK1   BANK2   BANK3   BANK4   BANK5   BANK6   BANK7   BANK8   BANK9  BANK10  BANK1
      +1  BANK12  BANK13  BANK14  BANK15  BANK16  BANK17  BANK18  BANK19  BANK20  BANK21  BANK22  BANK23  BANK24  BANK25  BANK2
      +6  BANK27  BANK28  BANK29  BANK30  BANK31  BANK32  BANK33  BANK34  BANK35  BANK36  BANK37  BANK38  BANK39  BANK40  BANK4
      +1  BANK42  BANK43  BANK44  BANK45  BANK46  BANK47  BANK48  BANK49  BANK50
  7148 ;;      Params:         0       0       0       0       0       0       0       0       0       0       0       0       
      +0       0       0       0       0       0       0       0       0       0       0       0       0       0       0       
      +0       0       0       0       0       0       0       0       0       0       0       0       0       0       0       
      +0       0       0       0       0       0       0       0       0       0
  7149 ;;      Locals:         0       0       0       0       0       0       0       0       0       0       0       0       
      +0       0       0       0       0       0       0       0       0       0       0       0       0       0       0       
      +0       0       0       0       0       0       0       0       0       0       0       0       0       0       0       
      +0       0       0       0       0       0       0       0       0       0
  7150 ;;      Temps:          0       0       0       0       0       0       0       0       0       0       0       0       
      +0       0       0       0       0       0       0       0       0       0       0       0       0       0       0       
      +0       0       0       0       0       0       0       0       0       0       0       0       0       0       0       
      +0       0       0       0       0       0       0       0       0       0
  7151 ;;      Totals:         0       0       0       0       0       0       0       0       0       0       0       0       
      +0       0       0       0       0       0       0       0       0       0       0       0       0       0       0       
      +0       0       0       0       0       0       0       0       0       0       0       0       0       0       0       
      +0       0       0       0       0       0       0       0       0       0
  7152 ;;Total ram usage:        0 bytes
  7153 ;; Hardware stack levels used:    1
  7154 ;; Hardware stack levels required when called:    5
  7155 ;; This function calls:
  7156 ;;		Nothing
  7157 ;; This function is called by:
  7158 ;;		_SYSTEM_Initialize
  7159 ;; This function uses a non-reentrant model
  7160 ;;
  7161                           
  7162                           
  7163                           ;psect for function _EUSART_Initialize
  7164  0D79                     _EUSART_Initialize:	
  7165                           
  7166                           ;eusart.c: 60: BAUD1CON = 0x08;
  7167                           
  7168                           ;incstack = 0
  7169                           ; Regs used in _EUSART_Initialize: [wreg+status,2]
  7170  0D79  3008               	movlw	8
  7171  0D7A  0142               	movlb	2	; select bank2
  7172  0D7B  009F               	movwf	31	;volatile
  7173                           
  7174                           ;eusart.c: 63: RC1STA = 0x90;
  7175  0D7C  3090               	movlw	144
  7176  0D7D  009D               	movwf	29	;volatile
  7177                           
  7178                           ;eusart.c: 66: TX1STA = 0x24;
  7179  0D7E  3024               	movlw	36
  7180  0D7F  009E               	movwf	30	;volatile
  7181                           
  7182                           ;eusart.c: 69: SP1BRGL = 0x67;
  7183  0D80  3067               	movlw	103
  7184  0D81  009B               	movwf	27	;volatile
  7185                           
  7186                           ;eusart.c: 72: SP1BRGH = 0x00;
  7187  0D82  019C               	clrf	28	;volatile
  7188  0D83  0008               	return
  7189  0D84                     __end_of_EUSART_Initialize:	
  7190                           
  7191                           	psect	text19
  7192  0DC0                     __ptext19:	
  7193 ;; *************** function _ADCC_Initialize *****************
  7194 ;; Defined at:
  7195 ;;		line 64 in file "mcc_generated_files/adcc.c"
  7196 ;; Parameters:    Size  Location     Type
  7197 ;;		None
  7198 ;; Auto vars:     Size  Location     Type
  7199 ;;		None
  7200 ;; Return value:  Size  Location     Type
  7201 ;;                  1    wreg      void 
  7202 ;; Registers used:
  7203 ;;		wreg, status,2
  7204 ;; Tracked objects:
  7205 ;;		On entry : 0/0
  7206 ;;		On exit  : 0/0
  7207 ;;		Unchanged: 0/0
  7208 ;; Data sizes:     COMMON   BANK0   BANK1   BANK2   BANK3   BANK4   BANK5   BANK6   BANK7   BANK8   BANK9  BANK10  BANK1
      +1  BANK12  BANK13  BANK14  BANK15  BANK16  BANK17  BANK18  BANK19  BANK20  BANK21  BANK22  BANK23  BANK24  BANK25  BANK2
      +6  BANK27  BANK28  BANK29  BANK30  BANK31  BANK32  BANK33  BANK34  BANK35  BANK36  BANK37  BANK38  BANK39  BANK40  BANK4
      +1  BANK42  BANK43  BANK44  BANK45  BANK46  BANK47  BANK48  BANK49  BANK50
  7209 ;;      Params:         0       0       0       0       0       0       0       0       0       0       0       0       
      +0       0       0       0       0       0       0       0       0       0       0       0       0       0       0       
      +0       0       0       0       0       0       0       0       0       0       0       0       0       0       0       
      +0       0       0       0       0       0       0       0       0       0
  7210 ;;      Locals:         0       0       0       0       0       0       0       0       0       0       0       0       
      +0       0       0       0       0       0       0       0       0       0       0       0       0       0       0       
      +0       0       0       0       0       0       0       0       0       0       0       0       0       0       0       
      +0       0       0       0       0       0       0       0       0       0
  7211 ;;      Temps:          0       0       0       0       0       0       0       0       0       0       0       0       
      +0       0       0       0       0       0       0       0       0       0       0       0       0       0       0       
      +0       0       0       0       0       0       0       0       0       0       0       0       0       0       0       
      +0       0       0       0       0       0       0       0       0       0
  7212 ;;      Totals:         0       0       0       0       0       0       0       0       0       0       0       0       
      +0       0       0       0       0       0       0       0       0       0       0       0       0       0       0       
      +0       0       0       0       0       0       0       0       0       0       0       0       0       0       0       
      +0       0       0       0       0       0       0       0       0       0
  7213 ;;Total ram usage:        0 bytes
  7214 ;; Hardware stack levels used:    1
  7215 ;; Hardware stack levels required when called:    5
  7216 ;; This function calls:
  7217 ;;		Nothing
  7218 ;; This function is called by:
  7219 ;;		_SYSTEM_Initialize
  7220 ;; This function uses a non-reentrant model
  7221 ;;
  7222                           
  7223                           
  7224                           ;psect for function _ADCC_Initialize
  7225  0DC0                     _ADCC_Initialize:	
  7226                           
  7227                           ;adcc.c: 68: ADCON1 = 0x00;
  7228                           
  7229                           ;incstack = 0
  7230                           ; Regs used in _ADCC_Initialize: [wreg+status,2]
  7231  0DC0  0141               	movlb	1	; select bank1
  7232  0DC1  0194               	clrf	20	;volatile
  7233                           
  7234                           ;adcc.c: 70: ADCON2 = 0x00;
  7235  0DC2  0195               	clrf	21	;volatile
  7236                           
  7237                           ;adcc.c: 72: ADCON3 = 0x00;
  7238  0DC3  0196               	clrf	22	;volatile
  7239                           
  7240                           ;adcc.c: 74: ADACT = 0x00;
  7241  0DC4  0199               	clrf	25	;volatile
  7242                           
  7243                           ;adcc.c: 76: ADSTAT = 0x00;
  7244  0DC5  0197               	clrf	23	;volatile
  7245                           
  7246                           ;adcc.c: 78: ADCLK = 0x3F;
  7247  0DC6  303F               	movlw	63
  7248  0DC7  0098               	movwf	24	;volatile
  7249                           
  7250                           ;adcc.c: 80: ADREF = 0x00;
  7251  0DC8  019A               	clrf	26	;volatile
  7252                           
  7253                           ;adcc.c: 82: ADCAP = 0x00;
  7254  0DC9  019B               	clrf	27	;volatile
  7255                           
  7256                           ;adcc.c: 84: ADPRE = 0x00;
  7257  0DCA  019C               	clrf	28	;volatile
  7258                           
  7259                           ;adcc.c: 86: ADACQ = 0x80;
  7260  0DCB  3080               	movlw	128
  7261  0DCC  009D               	movwf	29	;volatile
  7262                           
  7263                           ;adcc.c: 88: ADPCH = 0x00;
  7264  0DCD  019E               	clrf	30	;volatile
  7265                           
  7266                           ;adcc.c: 90: ADRPT = 0x00;
  7267  0DCE  0142               	movlb	2	; select bank2
  7268  0DCF  018D               	clrf	13	;volatile
  7269                           
  7270                           ;adcc.c: 92: ADLTHL = 0x00;
  7271  0DD0  018E               	clrf	14	;volatile
  7272                           
  7273                           ;adcc.c: 94: ADLTHH = 0x00;
  7274  0DD1  018F               	clrf	15	;volatile
  7275                           
  7276                           ;adcc.c: 96: ADUTHL = 0x00;
  7277  0DD2  0190               	clrf	16	;volatile
  7278                           
  7279                           ;adcc.c: 98: ADUTHH = 0x00;
  7280  0DD3  0191               	clrf	17	;volatile
  7281                           
  7282                           ;adcc.c: 100: ADSTPTL = 0x00;
  7283  0DD4  0192               	clrf	18	;volatile
  7284                           
  7285                           ;adcc.c: 102: ADSTPTH = 0x00;
  7286  0DD5  0193               	clrf	19	;volatile
  7287                           
  7288                           ;adcc.c: 105: ADCON0 = 0xC4;
  7289  0DD6  30C4               	movlw	196
  7290  0DD7  0141               	movlb	1	; select bank1
  7291  0DD8  0093               	movwf	19	;volatile
  7292                           
  7293                           ;adcc.c: 108: PIR1bits.ADIF = 0;
  7294  0DD9  014E               	movlb	14	; select bank14
  7295  0DDA  100D               	bcf	13,0	;volatile
  7296                           
  7297                           ;adcc.c: 110: PIE1bits.ADIE = 1;
  7298  0DDB  1417               	bsf	23,0	;volatile
  7299  0DDC  0008               	return
  7300  0DDD                     __end_of_ADCC_Initialize:	
  7301                           
  7302                           	psect	text20
  7303  0D55                     __ptext20:	
  7304 ;; *************** function _ADCC_StartConversion *****************
  7305 ;; Defined at:
  7306 ;;		line 116 in file "mcc_generated_files/adcc.c"
  7307 ;; Parameters:    Size  Location     Type
  7308 ;;  channel         1    wreg     enum E14195
  7309 ;; Auto vars:     Size  Location     Type
  7310 ;;  channel         1   27[BANK0 ] enum E14195
  7311 ;; Return value:  Size  Location     Type
  7312 ;;                  1    wreg      void 
  7313 ;; Registers used:
  7314 ;;		wreg
  7315 ;; Tracked objects:
  7316 ;;		On entry : 0/0
  7317 ;;		On exit  : 0/0
  7318 ;;		Unchanged: 0/0
  7319 ;; Data sizes:     COMMON   BANK0   BANK1   BANK2   BANK3   BANK4   BANK5   BANK6   BANK7   BANK8   BANK9  BANK10  BANK1
      +1  BANK12  BANK13  BANK14  BANK15  BANK16  BANK17  BANK18  BANK19  BANK20  BANK21  BANK22  BANK23  BANK24  BANK25  BANK2
      +6  BANK27  BANK28  BANK29  BANK30  BANK31  BANK32  BANK33  BANK34  BANK35  BANK36  BANK37  BANK38  BANK39  BANK40  BANK4
      +1  BANK42  BANK43  BANK44  BANK45  BANK46  BANK47  BANK48  BANK49  BANK50
  7320 ;;      Params:         0       0       0       0       0       0       0       0       0       0       0       0       
      +0       0       0       0       0       0       0       0       0       0       0       0       0       0       0       
      +0       0       0       0       0       0       0       0       0       0       0       0       0       0       0       
      +0       0       0       0       0       0       0       0       0       0
  7321 ;;      Locals:         0       1       0       0       0       0       0       0       0       0       0       0       
      +0       0       0       0       0       0       0       0       0       0       0       0       0       0       0       
      +0       0       0       0       0       0       0       0       0       0       0       0       0       0       0       
      +0       0       0       0       0       0       0       0       0       0
  7322 ;;      Temps:          0       0       0       0       0       0       0       0       0       0       0       0       
      +0       0       0       0       0       0       0       0       0       0       0       0       0       0       0       
      +0       0       0       0       0       0       0       0       0       0       0       0       0       0       0       
      +0       0       0       0       0       0       0       0       0       0
  7323 ;;      Totals:         0       1       0       0       0       0       0       0       0       0       0       0       
      +0       0       0       0       0       0       0       0       0       0       0       0       0       0       0       
      +0       0       0       0       0       0       0       0       0       0       0       0       0       0       0       
      +0       0       0       0       0       0       0       0       0       0
  7324 ;;Total ram usage:        1 bytes
  7325 ;; Hardware stack levels used:    1
  7326 ;; Hardware stack levels required when called:    5
  7327 ;; This function calls:
  7328 ;;		Nothing
  7329 ;; This function is called by:
  7330 ;;		_main
  7331 ;; This function uses a non-reentrant model
  7332 ;;
  7333                           
  7334                           
  7335                           ;psect for function _ADCC_StartConversion
  7336  0D55                     _ADCC_StartConversion:	
  7337                           
  7338                           ;incstack = 0
  7339                           ; Regs used in _ADCC_StartConversion: [wreg]
  7340                           ;ADCC_StartConversion@channel stored from wreg
  7341  0D55  0140               	movlb	0	; select bank0
  7342  0D56  00BB               	movwf	ADCC_StartConversion@channel
  7343                           
  7344                           ;adcc.c: 119: ADPCH = channel;
  7345  0D57  083B               	movf	ADCC_StartConversion@channel,w
  7346  0D58  0141               	movlb	1	; select bank1
  7347  0D59  009E               	movwf	30	;volatile
  7348                           
  7349                           ;adcc.c: 122: ADCON0bits.ADON = 1;
  7350  0D5A  1793               	bsf	19,7	;volatile
  7351                           
  7352                           ;adcc.c: 125: ADCON0bits.ADGO = 1;
  7353  0D5B  1413               	bsf	19,0	;volatile
  7354  0D5C  0008               	return
  7355  0D5D                     __end_of_ADCC_StartConversion:	
  7356                           
  7357                           	psect	text21
  7358  0D5D                     __ptext21:	
  7359 ;; *************** function _ADCC_GetConversionResult *****************
  7360 ;; Defined at:
  7361 ;;		line 134 in file "mcc_generated_files/adcc.c"
  7362 ;; Parameters:    Size  Location     Type
  7363 ;;		None
  7364 ;; Auto vars:     Size  Location     Type
  7365 ;;		None
  7366 ;; Return value:  Size  Location     Type
  7367 ;;                  2   27[BANK0 ] unsigned int 
  7368 ;; Registers used:
  7369 ;;		wreg
  7370 ;; Tracked objects:
  7371 ;;		On entry : 0/0
  7372 ;;		On exit  : 0/0
  7373 ;;		Unchanged: 0/0
  7374 ;; Data sizes:     COMMON   BANK0   BANK1   BANK2   BANK3   BANK4   BANK5   BANK6   BANK7   BANK8   BANK9  BANK10  BANK1
      +1  BANK12  BANK13  BANK14  BANK15  BANK16  BANK17  BANK18  BANK19  BANK20  BANK21  BANK22  BANK23  BANK24  BANK25  BANK2
      +6  BANK27  BANK28  BANK29  BANK30  BANK31  BANK32  BANK33  BANK34  BANK35  BANK36  BANK37  BANK38  BANK39  BANK40  BANK4
      +1  BANK42  BANK43  BANK44  BANK45  BANK46  BANK47  BANK48  BANK49  BANK50
  7375 ;;      Params:         0       2       0       0       0       0       0       0       0       0       0       0       
      +0       0       0       0       0       0       0       0       0       0       0       0       0       0       0       
      +0       0       0       0       0       0       0       0       0       0       0       0       0       0       0       
      +0       0       0       0       0       0       0       0       0       0
  7376 ;;      Locals:         0       0       0       0       0       0       0       0       0       0       0       0       
      +0       0       0       0       0       0       0       0       0       0       0       0       0       0       0       
      +0       0       0       0       0       0       0       0       0       0       0       0       0       0       0       
      +0       0       0       0       0       0       0       0       0       0
  7377 ;;      Temps:          0       0       0       0       0       0       0       0       0       0       0       0       
      +0       0       0       0       0       0       0       0       0       0       0       0       0       0       0       
      +0       0       0       0       0       0       0       0       0       0       0       0       0       0       0       
      +0       0       0       0       0       0       0       0       0       0
  7378 ;;      Totals:         0       2       0       0       0       0       0       0       0       0       0       0       
      +0       0       0       0       0       0       0       0       0       0       0       0       0       0       0       
      +0       0       0       0       0       0       0       0       0       0       0       0       0       0       0       
      +0       0       0       0       0       0       0       0       0       0
  7379 ;;Total ram usage:        2 bytes
  7380 ;; Hardware stack levels used:    1
  7381 ;; Hardware stack levels required when called:    5
  7382 ;; This function calls:
  7383 ;;		Nothing
  7384 ;; This function is called by:
  7385 ;;		_main
  7386 ;; This function uses a non-reentrant model
  7387 ;;
  7388                           
  7389                           
  7390                           ;psect for function _ADCC_GetConversionResult
  7391  0D5D                     _ADCC_GetConversionResult:	
  7392                           
  7393                           ;adcc.c: 137: return ((adc_result_t)((ADRESH << 8) + ADRESL));
  7394                           
  7395                           ;incstack = 0
  7396                           ; Regs used in _ADCC_GetConversionResult: [wreg]
  7397  0D5D  0141               	movlb	1	; select bank1
  7398  0D5E  080D               	movf	13,w	;volatile
  7399  0D5F  0140               	movlb	0	; select bank0
  7400  0D60  00BC               	movwf	?_ADCC_GetConversionResult+1
  7401  0D61  0141               	movlb	1	; select bank1
  7402  0D62  080C               	movf	12,w	;volatile
  7403  0D63  0140               	movlb	0	; select bank0
  7404  0D64  00BB               	movwf	?_ADCC_GetConversionResult
  7405  0D65  0008               	return
  7406  0D66                     __end_of_ADCC_GetConversionResult:	
  7407                           
  7408                           	psect	intentry
  7409  0004                     __pintentry:	
  7410 ;; *************** function _INTERRUPT_InterruptManager *****************
  7411 ;; Defined at:
  7412 ;;		line 51 in file "mcc_generated_files/interrupt_manager.c"
  7413 ;; Parameters:    Size  Location     Type
  7414 ;;		None
  7415 ;; Auto vars:     Size  Location     Type
  7416 ;;		None
  7417 ;; Return value:  Size  Location     Type
  7418 ;;                  1    wreg      void 
  7419 ;; Registers used:
  7420 ;;		wreg, fsr0l, fsr0h, fsr1l, fsr1h, status,2, status,0, pclath, cstack
  7421 ;; Tracked objects:
  7422 ;;		On entry : 0/0
  7423 ;;		On exit  : 0/0
  7424 ;;		Unchanged: 0/0
  7425 ;; Data sizes:     COMMON   BANK0   BANK1   BANK2   BANK3   BANK4   BANK5   BANK6   BANK7   BANK8   BANK9  BANK10  BANK1
      +1  BANK12  BANK13  BANK14  BANK15  BANK16  BANK17  BANK18  BANK19  BANK20  BANK21  BANK22  BANK23  BANK24  BANK25  BANK2
      +6  BANK27  BANK28  BANK29  BANK30  BANK31  BANK32  BANK33  BANK34  BANK35  BANK36  BANK37  BANK38  BANK39  BANK40  BANK4
      +1  BANK42  BANK43  BANK44  BANK45  BANK46  BANK47  BANK48  BANK49  BANK50
  7426 ;;      Params:         0       0       0       0       0       0       0       0       0       0       0       0       
      +0       0       0       0       0       0       0       0       0       0       0       0       0       0       0       
      +0       0       0       0       0       0       0       0       0       0       0       0       0       0       0       
      +0       0       0       0       0       0       0       0       0       0
  7427 ;;      Locals:         0       0       0       0       0       0       0       0       0       0       0       0       
      +0       0       0       0       0       0       0       0       0       0       0       0       0       0       0       
      +0       0       0       0       0       0       0       0       0       0       0       0       0       0       0       
      +0       0       0       0       0       0       0       0       0       0
  7428 ;;      Temps:          0       1       0       0       0       0       0       0       0       0       0       0       
      +0       0       0       0       0       0       0       0       0       0       0       0       0       0       0       
      +0       0       0       0       0       0       0       0       0       0       0       0       0       0       0       
      +0       0       0       0       0       0       0       0       0       0
  7429 ;;      Totals:         0       1       0       0       0       0       0       0       0       0       0       0       
      +0       0       0       0       0       0       0       0       0       0       0       0       0       0       0       
      +0       0       0       0       0       0       0       0       0       0       0       0       0       0       0       
      +0       0       0       0       0       0       0       0       0       0
  7430 ;;Total ram usage:        1 bytes
  7431 ;; Hardware stack levels used:    1
  7432 ;; Hardware stack levels required when called:    4
  7433 ;; This function calls:
  7434 ;;		_ADCC_ISR
  7435 ;;		_TMR2_ISR
  7436 ;; This function is called by:
  7437 ;;		Interrupt level 1
  7438 ;; This function uses a non-reentrant model
  7439 ;;
  7440                           
  7441  0004                     _INTERRUPT_InterruptManager:	
  7442                           
  7443                           ;incstack = 0
  7444  0004  147E               	bsf	126,0	;set compiler interrupt flag (level 1)
  7445                           
  7446                           ; Regs used in _INTERRUPT_InterruptManager: [wreg-fsr1h+status,2+status,0+pclath+cstack]
  7447  0005  3180               	pagesel	$
  7448  0006  0140               	movlb	0	; select bank0
  7449  0007  087F               	movf	127,w
  7450  0008  00BA               	movwf	??_INTERRUPT_InterruptManager
  7451                           
  7452                           ;interrupt_manager.c: 54: if(INTCONbits.PEIE == 1 && PIE1bits.ADIE == 1 && PIR1bits.ADIF
      +                           == 1)
  7453  0009  1F0B               	btfss	11,6	;volatile
  7454  000A  2813               	goto	i1l99
  7455  000B  014E               	movlb	14	; select bank14
  7456  000C  1817               	btfsc	23,0	;volatile
  7457  000D  1C0D               	btfss	13,0	;volatile
  7458  000E  2813               	goto	i1l99
  7459                           
  7460                           ;interrupt_manager.c: 55: {
  7461                           ;interrupt_manager.c: 56: ADCC_ISR();
  7462  000F  318D  253B  3180   	fcall	_ADCC_ISR
  7463                           
  7464                           ;interrupt_manager.c: 57: }
  7465  0012  281B               	goto	i1l103
  7466  0013                     i1l99:	
  7467                           
  7468                           ;interrupt_manager.c: 58: else if(INTCONbits.PEIE == 1 && PIE4bits.TMR2IE == 1 && PIR4bi
      +                          ts.TMR2IF == 1)
  7469  0013  1F0B               	btfss	11,6	;volatile
  7470  0014  281B               	goto	i1l103
  7471  0015  014E               	movlb	14	; select bank14
  7472  0016  189A               	btfsc	26,1	;volatile
  7473  0017  1C90               	btfss	16,1	;volatile
  7474  0018  281B               	goto	i1l103
  7475                           
  7476                           ;interrupt_manager.c: 59: {
  7477                           ;interrupt_manager.c: 60: TMR2_ISR();
  7478  0019  318E  26E9         	fcall	_TMR2_ISR
  7479  001B                     i1l103:	
  7480                           ;interrupt_manager.c: 62: else
  7481                           ;interrupt_manager.c: 63: {
  7482                           
  7483                           ;interrupt_manager.c: 61: }
  7484                           
  7485  001B  0140               	movlb	0	; select bank0
  7486  001C  083A               	movf	??_INTERRUPT_InterruptManager,w
  7487  001D  00FF               	movwf	127
  7488  001E  107E               	bcf	126,0	;clear compiler interrupt flag (level 1)
  7489  001F  0009               	retfie
  7490  0020                     __end_of_INTERRUPT_InterruptManager:	
  7491                           
  7492                           	psect	text23
  7493  0EE9                     __ptext23:	
  7494 ;; *************** function _TMR2_ISR *****************
  7495 ;; Defined at:
  7496 ;;		line 170 in file "mcc_generated_files/tmr2.c"
  7497 ;; Parameters:    Size  Location     Type
  7498 ;;		None
  7499 ;; Auto vars:     Size  Location     Type
  7500 ;;  ertek           2   24[BANK0 ] int 
  7501 ;; Return value:  Size  Location     Type
  7502 ;;                  1    wreg      void 
  7503 ;; Registers used:
  7504 ;;		wreg, fsr0l, fsr0h, fsr1l, fsr1h, status,2, status,0, pclath, cstack
  7505 ;; Tracked objects:
  7506 ;;		On entry : 0/0
  7507 ;;		On exit  : 0/0
  7508 ;;		Unchanged: 0/0
  7509 ;; Data sizes:     COMMON   BANK0   BANK1   BANK2   BANK3   BANK4   BANK5   BANK6   BANK7   BANK8   BANK9  BANK10  BANK1
      +1  BANK12  BANK13  BANK14  BANK15  BANK16  BANK17  BANK18  BANK19  BANK20  BANK21  BANK22  BANK23  BANK24  BANK25  BANK2
      +6  BANK27  BANK28  BANK29  BANK30  BANK31  BANK32  BANK33  BANK34  BANK35  BANK36  BANK37  BANK38  BANK39  BANK40  BANK4
      +1  BANK42  BANK43  BANK44  BANK45  BANK46  BANK47  BANK48  BANK49  BANK50
  7510 ;;      Params:         0       0       0       0       0       0       0       0       0       0       0       0       
      +0       0       0       0       0       0       0       0       0       0       0       0       0       0       0       
      +0       0       0       0       0       0       0       0       0       0       0       0       0       0       0       
      +0       0       0       0       0       0       0       0       0       0
  7511 ;;      Locals:         0       2       0       0       0       0       0       0       0       0       0       0       
      +0       0       0       0       0       0       0       0       0       0       0       0       0       0       0       
      +0       0       0       0       0       0       0       0       0       0       0       0       0       0       0       
      +0       0       0       0       0       0       0       0       0       0
  7512 ;;      Temps:          0       0       0       0       0       0       0       0       0       0       0       0       
      +0       0       0       0       0       0       0       0       0       0       0       0       0       0       0       
      +0       0       0       0       0       0       0       0       0       0       0       0       0       0       0       
      +0       0       0       0       0       0       0       0       0       0
  7513 ;;      Totals:         0       2       0       0       0       0       0       0       0       0       0       0       
      +0       0       0       0       0       0       0       0       0       0       0       0       0       0       0       
      +0       0       0       0       0       0       0       0       0       0       0       0       0       0       0       
      +0       0       0       0       0       0       0       0       0       0
  7514 ;;Total ram usage:        2 bytes
  7515 ;; Hardware stack levels used:    1
  7516 ;; Hardware stack levels required when called:    3
  7517 ;; This function calls:
  7518 ;;		___fttol
  7519 ;;		i1___ftadd
  7520 ;;		i1___ftdiv
  7521 ;;		i1_printf
  7522 ;; This function is called by:
  7523 ;;		_INTERRUPT_InterruptManager
  7524 ;; This function uses a non-reentrant model
  7525 ;;
  7526                           
  7527                           
  7528                           ;psect for function _TMR2_ISR
  7529  0EE9                     _TMR2_ISR:	
  7530                           
  7531                           ;tmr2.c: 174: PIR4bits.TMR2IF = 0;
  7532                           
  7533                           ;incstack = 0
  7534                           ; Regs used in _TMR2_ISR: [wreg-fsr1h+status,2+status,0+pclath+cstack]
  7535  0EE9  014E               	movlb	14	; select bank14
  7536  0EEA  1090               	bcf	16,1	;volatile
  7537                           
  7538                           ;tmr2.c: 175: do { LATCbits.LATC6 = ~LATCbits.LATC6; } while(0);
  7539  0EEB  1003               	clrc
  7540  0EEC  0140               	movlb	0	; select bank0
  7541  0EED  1F18               	btfss	24,6	;volatile
  7542  0EEE  1403               	setc
  7543  0EEF  1C03               	btfss	3,0
  7544  0EF0  2EF4               	goto	u289_20
  7545  0EF1  0140               	movlb	0	; select bank0
  7546  0EF2  1718               	bsf	24,6	;volatile
  7547  0EF3  2EF6               	goto	i1l2405
  7548  0EF4                     u289_20:	
  7549  0EF4  0140               	movlb	0	; select bank0
  7550  0EF5  1318               	bcf	24,6	;volatile
  7551  0EF6                     i1l2405:	
  7552                           
  7553                           ;tmr2.c: 176: if(PORTCbits.RC4 == 1)
  7554  0EF6  1E0E               	btfss	14,4	;volatile
  7555  0EF7  0008               	return
  7556                           
  7557                           ;tmr2.c: 177: {
  7558                           ;tmr2.c: 178: int ertek;
  7559                           ;tmr2.c: 179: ido=ido-1;
  7560  0EF8  3000               	movlw	0
  7561  0EF9  00F8               	movwf	i1___ftadd@f1
  7562  0EFA  3080               	movlw	128
  7563  0EFB  00F9               	movwf	i1___ftadd@f1+1
  7564  0EFC  30BF               	movlw	191
  7565  0EFD  00FA               	movwf	i1___ftadd@f1+2
  7566  0EFE  084F               	movf	_ido,w
  7567  0EFF  00FB               	movwf	i1___ftadd@f2
  7568  0F00  0850               	movf	_ido+1,w
  7569  0F01  00FC               	movwf	i1___ftadd@f2+1
  7570  0F02  0851               	movf	_ido+2,w
  7571  0F03  00FD               	movwf	i1___ftadd@f2+2
  7572  0F04  3182  2281  318E   	fcall	i1___ftadd
  7573  0F07  0878               	movf	?i1___ftadd,w
  7574  0F08  0140               	movlb	0	; select bank0
  7575  0F09  00CF               	movwf	_ido
  7576  0F0A  0879               	movf	?i1___ftadd+1,w
  7577  0F0B  00D0               	movwf	_ido+1
  7578  0F0C  087A               	movf	?i1___ftadd+2,w
  7579  0F0D  00D1               	movwf	_ido+2
  7580                           
  7581                           ;tmr2.c: 180: ertek= ido / 10;
  7582  0F0E  084F               	movf	_ido,w
  7583  0F0F  00FB               	movwf	i1___ftdiv@f1
  7584  0F10  0850               	movf	_ido+1,w
  7585  0F11  00FC               	movwf	i1___ftdiv@f1+1
  7586  0F12  0851               	movf	_ido+2,w
  7587  0F13  00FD               	movwf	i1___ftdiv@f1+2
  7588  0F14  3000               	movlw	0
  7589  0F15  00F8               	movwf	i1___ftdiv@f2
  7590  0F16  3020               	movlw	32
  7591  0F17  00F9               	movwf	i1___ftdiv@f2+1
  7592  0F18  3041               	movlw	65
  7593  0F19  00FA               	movwf	i1___ftdiv@f2+2
  7594  0F1A  3186  269F  318E   	fcall	i1___ftdiv
  7595  0F1D  0878               	movf	?i1___ftdiv,w
  7596  0F1E  0140               	movlb	0	; select bank0
  7597  0F1F  00AA               	movwf	___fttol@f1
  7598  0F20  0879               	movf	?i1___ftdiv+1,w
  7599  0F21  00AB               	movwf	___fttol@f1+1
  7600  0F22  087A               	movf	?i1___ftdiv+2,w
  7601  0F23  00AC               	movwf	___fttol@f1+2
  7602  0F24  3187  2747  318E   	fcall	___fttol
  7603  0F27  0140               	movlb	0	; select bank0
  7604  0F28  082B               	movf	?___fttol+1,w
  7605  0F29  00B9               	movwf	TMR2_ISR@ertek+1
  7606  0F2A  082A               	movf	?___fttol,w
  7607  0F2B  00B8               	movwf	TMR2_ISR@ertek
  7608                           
  7609                           ;tmr2.c: 181: printf("\033[0m\033[2J\033[1;1H\033[?25l%i" , ertek);
  7610  0F2C  3000               	movlw	low (STR_1| (0+32768))
  7611  0F2D  00A0               	movwf	i1printf@f
  7612  0F2E  3090               	movlw	high (STR_1| (0+32768))
  7613  0F2F  00A1               	movwf	i1printf@f+1
  7614  0F30  0839               	movf	TMR2_ISR@ertek+1,w
  7615  0F31  00A3               	movwf	?i1_printf+3
  7616  0F32  0838               	movf	TMR2_ISR@ertek,w
  7617  0F33  00A2               	movwf	?i1_printf+2
  7618  0F34  3185  25E8         	fcall	i1_printf
  7619  0F36  0008               	return
  7620  0F37                     __end_of_TMR2_ISR:	
  7621                           
  7622                           	psect	text24
  7623  05E8                     __ptext24:	
  7624 ;; *************** function i1_printf *****************
  7625 ;; Defined at:
  7626 ;;		line 464 in file "C:\Program Files (x86)\Microchip\xc8\v1.45\sources\common\doprnt.c"
  7627 ;; Parameters:    Size  Location     Type
  7628 ;;  f               2    0[BANK0 ] PTR const unsigned char 
  7629 ;;		 -> STR_2(22), STR_1(23), 
  7630 ;; Auto vars:     Size  Location     Type
  7631 ;;  printf          4    0        struct .
  7632 ;;  printf          2   11[BANK0 ] unsigned int 
  7633 ;;  printf          2    0        PTR const unsigned char 
  7634 ;;  printf          2    0        unsigned int 
  7635 ;;  printf          1   13[BANK0 ] char 
  7636 ;;  printf          1   10[BANK0 ] char 
  7637 ;;  printf          1    9[BANK0 ] unsigned char 
  7638 ;;  printf          1    8[BANK0 ] PTR void [1]
  7639 ;;		 -> ?i1_printf(2), ?_printf(2), 
  7640 ;; Return value:  Size  Location     Type
  7641 ;;                  2    0[BANK0 ] int 
  7642 ;; Registers used:
  7643 ;;		wreg, fsr0l, fsr0h, fsr1l, fsr1h, status,2, status,0, pclath, cstack
  7644 ;; Tracked objects:
  7645 ;;		On entry : 0/0
  7646 ;;		On exit  : 0/0
  7647 ;;		Unchanged: 0/0
  7648 ;; Data sizes:     COMMON   BANK0   BANK1   BANK2   BANK3   BANK4   BANK5   BANK6   BANK7   BANK8   BANK9  BANK10  BANK1
      +1  BANK12  BANK13  BANK14  BANK15  BANK16  BANK17  BANK18  BANK19  BANK20  BANK21  BANK22  BANK23  BANK24  BANK25  BANK2
      +6  BANK27  BANK28  BANK29  BANK30  BANK31  BANK32  BANK33  BANK34  BANK35  BANK36  BANK37  BANK38  BANK39  BANK40  BANK4
      +1  BANK42  BANK43  BANK44  BANK45  BANK46  BANK47  BANK48  BANK49  BANK50
  7649 ;;      Params:         0       4       0       0       0       0       0       0       0       0       0       0       
      +0       0       0       0       0       0       0       0       0       0       0       0       0       0       0       
      +0       0       0       0       0       0       0       0       0       0       0       0       0       0       0       
      +0       0       0       0       0       0       0       0       0       0
  7650 ;;      Locals:         0       6       0       0       0       0       0       0       0       0       0       0       
      +0       0       0       0       0       0       0       0       0       0       0       0       0       0       0       
      +0       0       0       0       0       0       0       0       0       0       0       0       0       0       0       
      +0       0       0       0       0       0       0       0       0       0
  7651 ;;      Temps:          0       4       0       0       0       0       0       0       0       0       0       0       
      +0       0       0       0       0       0       0       0       0       0       0       0       0       0       0       
      +0       0       0       0       0       0       0       0       0       0       0       0       0       0       0       
      +0       0       0       0       0       0       0       0       0       0
  7652 ;;      Totals:         0      14       0       0       0       0       0       0       0       0       0       0       
      +0       0       0       0       0       0       0       0       0       0       0       0       0       0       0       
      +0       0       0       0       0       0       0       0       0       0       0       0       0       0       0       
      +0       0       0       0       0       0       0       0       0       0
  7653 ;;Total ram usage:       14 bytes
  7654 ;; Hardware stack levels used:    1
  7655 ;; Hardware stack levels required when called:    2
  7656 ;; This function calls:
  7657 ;;		i1___lwdiv
  7658 ;;		i1___lwmod
  7659 ;;		i1_putch
  7660 ;; This function is called by:
  7661 ;;		_TMR2_ISR
  7662 ;; This function uses a non-reentrant model
  7663 ;;
  7664                           
  7665                           
  7666                           ;psect for function i1_printf
  7667  05E8                     i1_printf:	
  7668                           
  7669                           ;doprnt.c: 466: va_list ap;
  7670                           ;doprnt.c: 499: signed char c;
  7671                           ;doprnt.c: 506: signed char prec;
  7672                           ;doprnt.c: 508: unsigned char flag;
  7673                           ;doprnt.c: 523: union {
  7674                           ;doprnt.c: 524: unsigned long vd;
  7675                           ;doprnt.c: 525: double integ;
  7676                           ;doprnt.c: 526: } tmpval;
  7677                           ;doprnt.c: 528: unsigned int val;
  7678                           ;doprnt.c: 529: unsigned len;
  7679                           ;doprnt.c: 530: const char * cp;
  7680                           ;doprnt.c: 533: *ap = __va_start();
  7681                           
  7682                           ;incstack = 0
  7683                           ; Regs used in i1_printf: [wreg-fsr1h+status,2+status,0+pclath+cstack]
  7684  05E8  3022               	movlw	(low ((?i1_printf| 0+2)))& (0+255)
  7685  05E9  0140               	movlb	0	; select bank0
  7686  05EA  00A4               	movwf	??i1_printf
  7687  05EB  0824               	movf	??i1_printf,w
  7688  05EC  00A8               	movwf	i1printf@ap
  7689  05ED                     i1l2285:	
  7690                           ;doprnt.c: 536: while(c = *f++) {
  7691                           
  7692  05ED  0140               	movlb	0	; select bank0
  7693  05EE  0821               	movf	i1printf@f+1,w
  7694  05EF  00A5               	movwf	??i1_printf+1
  7695  05F0  0820               	movf	i1printf@f,w
  7696  05F1  00A4               	movwf	??i1_printf
  7697  05F2  0AA0               	incf	i1printf@f,f
  7698  05F3  1903               	skipnz
  7699  05F4  0AA1               	incf	i1printf@f+1,f
  7700  05F5  0824               	movf	??i1_printf,w
  7701  05F6  0084               	movwf	4
  7702  05F7  0825               	movf	??i1_printf+1,w
  7703  05F8  0085               	movwf	5
  7704  05F9  0800               	movf	0,w	;code access
  7705  05FA  00A6               	movwf	??i1_printf+2
  7706  05FB  0826               	movf	??i1_printf+2,w
  7707  05FC  00AD               	movwf	i1printf@c
  7708  05FD  082D               	movf	i1printf@c,w
  7709  05FE  1903               	btfsc	3,2
  7710  05FF  0008               	return
  7711                           
  7712                           ;doprnt.c: 538: if(c != '%')
  7713  0600  3025               	movlw	37
  7714  0601  062D               	xorwf	i1printf@c,w
  7715  0602  1903               	btfsc	3,2
  7716  0603  2E09               	goto	i1l2245
  7717                           
  7718                           ;doprnt.c: 540: {
  7719                           ;doprnt.c: 541: (putch(c) );
  7720  0604  082D               	movf	i1printf@c,w
  7721  0605  3187  27FB  3185   	fcall	i1_putch
  7722                           
  7723                           ;doprnt.c: 542: continue;
  7724  0608  2DED               	goto	i1l2285
  7725  0609                     i1l2245:	
  7726                           
  7727                           ;doprnt.c: 543: }
  7728                           ;doprnt.c: 548: flag = 0;
  7729  0609  0140               	movlb	0	; select bank0
  7730  060A  01A9               	clrf	i1printf@flag
  7731                           
  7732                           ;doprnt.c: 822: }
  7733                           
  7734                           ;doprnt.c: 813: continue;
  7735                           
  7736                           ;doprnt.c: 802: default:
  7737                           
  7738                           ;doprnt.c: 698: case 'i':
  7739                           ;doprnt.c: 699: break;
  7740                           
  7741                           ;doprnt.c: 697: case 'd':
  7742                           
  7743                           ;doprnt.c: 638: goto alldone;
  7744                           
  7745                           ;doprnt.c: 637: case 0:
  7746                           
  7747                           ;doprnt.c: 635: switch(c = *f++) {
  7748  060B  0821               	movf	i1printf@f+1,w
  7749  060C  00A5               	movwf	??i1_printf+1
  7750  060D  0820               	movf	i1printf@f,w
  7751  060E  00A4               	movwf	??i1_printf
  7752  060F  0AA0               	incf	i1printf@f,f
  7753  0610  1903               	skipnz
  7754  0611  0AA1               	incf	i1printf@f+1,f
  7755  0612  0824               	movf	??i1_printf,w
  7756  0613  0084               	movwf	4
  7757  0614  0825               	movf	??i1_printf+1,w
  7758  0615  0085               	movwf	5
  7759  0616  0800               	movf	0,w	;code access
  7760  0617  00AD               	movwf	i1printf@c
  7761                           
  7762                           ; Switch size 1, requested type "space"
  7763                           ; Number of cases is 3, Range of values is 0 to 105
  7764                           ; switch strategies available:
  7765                           ; Name         Instructions Cycles
  7766                           ; simple_byte           10     6 (average)
  7767                           ; direct_byte          218     6 (fixed)
  7768                           ; jumptable            260     6 (fixed)
  7769                           ;	Chosen strategy is simple_byte
  7770  0618  3A00               	xorlw	0	; case 0
  7771  0619  1903               	skipnz
  7772  061A  2E9E               	goto	i1l507
  7773  061B  3A64               	xorlw	100	; case 100
  7774  061C  1903               	skipnz
  7775  061D  2E22               	goto	i1l2251
  7776  061E  3A0D               	xorlw	13	; case 105
  7777  061F  1903               	skipnz
  7778  0620  2E22               	goto	i1l2251
  7779  0621  2DED               	goto	i1l2285
  7780  0622                     i1l2251:	
  7781                           
  7782                           ;doprnt.c: 1253: {
  7783                           ;doprnt.c: 1259: val = (int)(*(int *)__va_arg((*(int **)ap), (int)0));
  7784  0622  0828               	movf	i1printf@ap,w
  7785  0623  0086               	movwf	6
  7786  0624  0187               	clrf	7
  7787  0625  3F40               	moviw [0]fsr1
  7788  0626  00AB               	movwf	i1printf@val
  7789  0627  3F41               	moviw [1]fsr1
  7790  0628  00AC               	movwf	i1printf@val+1
  7791  0629  3002               	movlw	2
  7792  062A  00A4               	movwf	??i1_printf
  7793  062B  0824               	movf	??i1_printf,w
  7794  062C  07A8               	addwf	i1printf@ap,f
  7795                           
  7796                           ;doprnt.c: 1261: if((int)val < 0) {
  7797  062D  1FAC               	btfss	i1printf@val+1,7
  7798  062E  2E38               	goto	i1l2261
  7799                           
  7800                           ;doprnt.c: 1262: flag |= 0x03;
  7801  062F  3003               	movlw	3
  7802  0630  00A4               	movwf	??i1_printf
  7803  0631  0824               	movf	??i1_printf,w
  7804  0632  04A9               	iorwf	i1printf@flag,f
  7805                           
  7806                           ;doprnt.c: 1263: val = -val;
  7807  0633  09AB               	comf	i1printf@val,f
  7808  0634  09AC               	comf	i1printf@val+1,f
  7809  0635  0AAB               	incf	i1printf@val,f
  7810  0636  1903               	skipnz
  7811  0637  0AAC               	incf	i1printf@val+1,f
  7812  0638                     i1l2261:	
  7813                           
  7814                           ;doprnt.c: 1264: }
  7815                           ;doprnt.c: 1266: }
  7816                           ;doprnt.c: 1305: for(c = 1 ; c != sizeof dpowers/sizeof dpowers[0] ; c++)
  7817  0638  01AD               	clrf	i1printf@c
  7818  0639  0AAD               	incf	i1printf@c,f
  7819  063A  3005               	movlw	5
  7820  063B  062D               	xorwf	i1printf@c,w
  7821  063C  1903               	btfsc	3,2
  7822  063D  2E5D               	goto	i1l2273
  7823  063E                     i1l2267:	
  7824                           
  7825                           ;doprnt.c: 1306: if(val < dpowers[c])
  7826  063E  082D               	movf	i1printf@c,w
  7827  063F  00A4               	movwf	??i1_printf
  7828  0640  01A5               	clrf	??i1_printf+1
  7829  0641  35A4               	lslf	??i1_printf,f
  7830  0642  0DA5               	rlf	??i1_printf+1,f
  7831  0643  302D               	movlw	low (_dpowers| (0+32768))
  7832  0644  0724               	addwf	??i1_printf,w
  7833  0645  0084               	movwf	4
  7834  0646  3090               	movlw	high (_dpowers| (0+32768))
  7835  0647  3D25               	addwfc	??i1_printf+1,w
  7836  0648  0085               	movwf	5
  7837  0649  3F00               	moviw [0]fsr0
  7838  064A  00A6               	movwf	??i1_printf+2
  7839  064B  3F01               	moviw [1]fsr0
  7840  064C  00A7               	movwf	??i1_printf+3
  7841  064D  0827               	movf	??i1_printf+3,w
  7842  064E  022C               	subwf	i1printf@val+1,w
  7843  064F  1D03               	skipz
  7844  0650  2E53               	goto	u253_25
  7845  0651  0826               	movf	??i1_printf+2,w
  7846  0652  022B               	subwf	i1printf@val,w
  7847  0653                     u253_25:	
  7848  0653  1C03               	btfss	3,0
  7849  0654  2E5D               	goto	i1l2273
  7850                           
  7851                           ;doprnt.c: 1307: break;
  7852  0655  3001               	movlw	1
  7853  0656  00A4               	movwf	??i1_printf
  7854  0657  0824               	movf	??i1_printf,w
  7855  0658  07AD               	addwf	i1printf@c,f
  7856  0659  3005               	movlw	5
  7857  065A  062D               	xorwf	i1printf@c,w
  7858  065B  1D03               	btfss	3,2
  7859  065C  2E3E               	goto	i1l2267
  7860  065D                     i1l2273:	
  7861                           
  7862                           ;doprnt.c: 1422: {
  7863                           ;doprnt.c: 1438: if(flag & 0x03)
  7864  065D  0829               	movf	i1printf@flag,w
  7865  065E  3903               	andlw	3
  7866  065F  1903               	btfsc	3,2
  7867  0660  2E65               	goto	i1l2277
  7868                           
  7869                           ;doprnt.c: 1439: (putch('-') );
  7870  0661  302D               	movlw	45
  7871  0662  3187  27FB  3185   	fcall	i1_putch
  7872  0665                     i1l2277:	
  7873                           
  7874                           ;doprnt.c: 1469: }
  7875                           ;doprnt.c: 1472: prec = c;
  7876  0665  0140               	movlb	0	; select bank0
  7877  0666  082D               	movf	i1printf@c,w
  7878  0667  00A4               	movwf	??i1_printf
  7879  0668  0824               	movf	??i1_printf,w
  7880  0669  00AA               	movwf	i1printf@prec
  7881  066A                     i1l2283:	
  7882                           ;doprnt.c: 1474: while(prec--) {
  7883                           
  7884  066A  30FF               	movlw	255
  7885  066B  0140               	movlb	0	; select bank0
  7886  066C  00A4               	movwf	??i1_printf
  7887  066D  0824               	movf	??i1_printf,w
  7888  066E  07AA               	addwf	i1printf@prec,f
  7889  066F  0A2A               	incf	i1printf@prec,w
  7890  0670  1903               	btfsc	3,2
  7891  0671  2DED               	goto	i1l2285
  7892                           
  7893                           ;doprnt.c: 1478: {
  7894                           ;doprnt.c: 1489: c = (val / dpowers[prec]) % 10 + '0';
  7895  0672  300A               	movlw	10
  7896  0673  00F8               	movwf	i1___lwmod@divisor
  7897  0674  3000               	movlw	0
  7898  0675  00F9               	movwf	i1___lwmod@divisor+1
  7899  0676  082A               	movf	i1printf@prec,w
  7900  0677  00A4               	movwf	??i1_printf
  7901  0678  01A5               	clrf	??i1_printf+1
  7902  0679  35A4               	lslf	??i1_printf,f
  7903  067A  0DA5               	rlf	??i1_printf+1,f
  7904  067B  302D               	movlw	low (_dpowers| (0+32768))
  7905  067C  0724               	addwf	??i1_printf,w
  7906  067D  0084               	movwf	4
  7907  067E  3090               	movlw	high (_dpowers| (0+32768))
  7908  067F  3D25               	addwfc	??i1_printf+1,w
  7909  0680  0085               	movwf	5
  7910  0681  3F00               	moviw [0]fsr0
  7911  0682  00F0               	movwf	i1___lwdiv@divisor
  7912  0683  3F01               	moviw [1]fsr0
  7913  0684  00F1               	movwf	i1___lwdiv@divisor+1
  7914  0685  082C               	movf	i1printf@val+1,w
  7915  0686  00F3               	movwf	i1___lwdiv@dividend+1
  7916  0687  082B               	movf	i1printf@val,w
  7917  0688  00F2               	movwf	i1___lwdiv@dividend
  7918  0689  318E  2609  3185   	fcall	i1___lwdiv
  7919  068C  0871               	movf	?i1___lwdiv+1,w
  7920  068D  00FB               	movwf	i1___lwmod@dividend+1
  7921  068E  0870               	movf	?i1___lwdiv,w
  7922  068F  00FA               	movwf	i1___lwmod@dividend
  7923  0690  318D  25DD  3185   	fcall	i1___lwmod
  7924  0693  0878               	movf	?i1___lwmod,w
  7925  0694  3E30               	addlw	48
  7926  0695  0140               	movlb	0	; select bank0
  7927  0696  00A6               	movwf	??i1_printf+2
  7928  0697  0826               	movf	??i1_printf+2,w
  7929  0698  00AD               	movwf	i1printf@c
  7930                           
  7931                           ;doprnt.c: 1523: }
  7932                           ;doprnt.c: 1524: (putch(c) );
  7933  0699  082D               	movf	i1printf@c,w
  7934  069A  3187  27FB  3185   	fcall	i1_putch
  7935  069D  2E6A               	goto	i1l2283
  7936  069E                     i1l507:	
  7937                           ;doprnt.c: 1540: return 0;
  7938                           ;	Return value of i1_printf is never used
  7939                           
  7940                           ;doprnt.c: 1525: }
  7941                           ;doprnt.c: 1533: }
  7942                           ;doprnt.c: 1535: alldone:
  7943                           
  7944  069E  0008               	return
  7945  069F                     __end_ofi1_printf:	
  7946                           
  7947                           	psect	text25
  7948  07FB                     __ptext25:	
  7949 ;; *************** function i1_putch *****************
  7950 ;; Defined at:
  7951 ;;		line 110 in file "mcc_generated_files/eusart.c"
  7952 ;; Parameters:    Size  Location     Type
  7953 ;;  txData          1    wreg     unsigned char 
  7954 ;; Auto vars:     Size  Location     Type
  7955 ;;  txData          1    1[COMMON] unsigned char 
  7956 ;; Return value:  Size  Location     Type
  7957 ;;                  1    wreg      void 
  7958 ;; Registers used:
  7959 ;;		wreg, status,2, status,0, pclath, cstack
  7960 ;; Tracked objects:
  7961 ;;		On entry : 0/0
  7962 ;;		On exit  : 0/0
  7963 ;;		Unchanged: 0/0
  7964 ;; Data sizes:     COMMON   BANK0   BANK1   BANK2   BANK3   BANK4   BANK5   BANK6   BANK7   BANK8   BANK9  BANK10  BANK1
      +1  BANK12  BANK13  BANK14  BANK15  BANK16  BANK17  BANK18  BANK19  BANK20  BANK21  BANK22  BANK23  BANK24  BANK25  BANK2
      +6  BANK27  BANK28  BANK29  BANK30  BANK31  BANK32  BANK33  BANK34  BANK35  BANK36  BANK37  BANK38  BANK39  BANK40  BANK4
      +1  BANK42  BANK43  BANK44  BANK45  BANK46  BANK47  BANK48  BANK49  BANK50
  7965 ;;      Params:         0       0       0       0       0       0       0       0       0       0       0       0       
      +0       0       0       0       0       0       0       0       0       0       0       0       0       0       0       
      +0       0       0       0       0       0       0       0       0       0       0       0       0       0       0       
      +0       0       0       0       0       0       0       0       0       0
  7966 ;;      Locals:         1       0       0       0       0       0       0       0       0       0       0       0       
      +0       0       0       0       0       0       0       0       0       0       0       0       0       0       0       
      +0       0       0       0       0       0       0       0       0       0       0       0       0       0       0       
      +0       0       0       0       0       0       0       0       0       0
  7967 ;;      Temps:          0       0       0       0       0       0       0       0       0       0       0       0       
      +0       0       0       0       0       0       0       0       0       0       0       0       0       0       0       
      +0       0       0       0       0       0       0       0       0       0       0       0       0       0       0       
      +0       0       0       0       0       0       0       0       0       0
  7968 ;;      Totals:         1       0       0       0       0       0       0       0       0       0       0       0       
      +0       0       0       0       0       0       0       0       0       0       0       0       0       0       0       
      +0       0       0       0       0       0       0       0       0       0       0       0       0       0       0       
      +0       0       0       0       0       0       0       0       0       0
  7969 ;;Total ram usage:        1 bytes
  7970 ;; Hardware stack levels used:    1
  7971 ;; Hardware stack levels required when called:    1
  7972 ;; This function calls:
  7973 ;;		i1_EUSART_Write
  7974 ;; This function is called by:
  7975 ;;		i1_printf
  7976 ;; This function uses a non-reentrant model
  7977 ;;
  7978                           
  7979                           
  7980                           ;psect for function i1_putch
  7981  07FB                     i1_putch:	
  7982                           
  7983                           ;incstack = 0
  7984                           ; Regs used in i1_putch: [wreg+status,2+status,0+pclath+cstack]
  7985                           ;i1putch@txData stored from wreg
  7986  07FB  00F1               	movwf	i1putch@txData
  7987                           
  7988                           ;eusart.c: 112: EUSART_Write(txData);
  7989  07FC  0871               	movf	i1putch@txData,w
  7990  07FD  318D  254D         	fcall	i1_EUSART_Write
  7991  07FF  0008               	return
  7992  0800                     __end_ofi1_putch:	
  7993                           
  7994                           	psect	text26
  7995  0D4D                     __ptext26:	
  7996 ;; *************** function i1_EUSART_Write *****************
  7997 ;; Defined at:
  7998 ;;		line 96 in file "mcc_generated_files/eusart.c"
  7999 ;; Parameters:    Size  Location     Type
  8000 ;;  txData          1    wreg     unsigned char 
  8001 ;; Auto vars:     Size  Location     Type
  8002 ;;  txData          1    0[COMMON] unsigned char 
  8003 ;; Return value:  Size  Location     Type
  8004 ;;                  1    wreg      void 
  8005 ;; Registers used:
  8006 ;;		wreg
  8007 ;; Tracked objects:
  8008 ;;		On entry : 0/0
  8009 ;;		On exit  : 0/0
  8010 ;;		Unchanged: 0/0
  8011 ;; Data sizes:     COMMON   BANK0   BANK1   BANK2   BANK3   BANK4   BANK5   BANK6   BANK7   BANK8   BANK9  BANK10  BANK1
      +1  BANK12  BANK13  BANK14  BANK15  BANK16  BANK17  BANK18  BANK19  BANK20  BANK21  BANK22  BANK23  BANK24  BANK25  BANK2
      +6  BANK27  BANK28  BANK29  BANK30  BANK31  BANK32  BANK33  BANK34  BANK35  BANK36  BANK37  BANK38  BANK39  BANK40  BANK4
      +1  BANK42  BANK43  BANK44  BANK45  BANK46  BANK47  BANK48  BANK49  BANK50
  8012 ;;      Params:         0       0       0       0       0       0       0       0       0       0       0       0       
      +0       0       0       0       0       0       0       0       0       0       0       0       0       0       0       
      +0       0       0       0       0       0       0       0       0       0       0       0       0       0       0       
      +0       0       0       0       0       0       0       0       0       0
  8013 ;;      Locals:         1       0       0       0       0       0       0       0       0       0       0       0       
      +0       0       0       0       0       0       0       0       0       0       0       0       0       0       0       
      +0       0       0       0       0       0       0       0       0       0       0       0       0       0       0       
      +0       0       0       0       0       0       0       0       0       0
  8014 ;;      Temps:          0       0       0       0       0       0       0       0       0       0       0       0       
      +0       0       0       0       0       0       0       0       0       0       0       0       0       0       0       
      +0       0       0       0       0       0       0       0       0       0       0       0       0       0       0       
      +0       0       0       0       0       0       0       0       0       0
  8015 ;;      Totals:         1       0       0       0       0       0       0       0       0       0       0       0       
      +0       0       0       0       0       0       0       0       0       0       0       0       0       0       0       
      +0       0       0       0       0       0       0       0       0       0       0       0       0       0       0       
      +0       0       0       0       0       0       0       0       0       0
  8016 ;;Total ram usage:        1 bytes
  8017 ;; Hardware stack levels used:    1
  8018 ;; This function calls:
  8019 ;;		Nothing
  8020 ;; This function is called by:
  8021 ;;		i1_putch
  8022 ;; This function uses a non-reentrant model
  8023 ;;
  8024                           
  8025                           
  8026                           ;psect for function i1_EUSART_Write
  8027  0D4D                     i1_EUSART_Write:	
  8028                           
  8029                           ;incstack = 0
  8030                           ; Regs used in i1_EUSART_Write: [wreg]
  8031                           ;i1EUSART_Write@txData stored from wreg
  8032  0D4D  00F0               	movwf	i1EUSART_Write@txData
  8033  0D4E                     i1l395:	
  8034                           ;eusart.c: 99: {
  8035                           
  8036                           ;eusart.c: 98: while(0 == PIR3bits.TXIF)
  8037                           
  8038  0D4E  014E               	movlb	14	; select bank14
  8039  0D4F  1E0F               	btfss	15,4	;volatile
  8040  0D50  2D4E               	goto	i1l395
  8041                           
  8042                           ;eusart.c: 100: }
  8043                           ;eusart.c: 102: TX1REG = txData;
  8044  0D51  0870               	movf	i1EUSART_Write@txData,w
  8045  0D52  0142               	movlb	2	; select bank2
  8046  0D53  009A               	movwf	26	;volatile
  8047  0D54  0008               	return
  8048  0D55                     __end_ofi1_EUSART_Write:	
  8049                           
  8050                           	psect	text27
  8051  0DDD                     __ptext27:	
  8052 ;; *************** function i1___lwmod *****************
  8053 ;; Defined at:
  8054 ;;		line 6 in file "C:\Program Files (x86)\Microchip\xc8\v1.45\sources\common\lwmod.c"
  8055 ;; Parameters:    Size  Location     Type
  8056 ;;  divisor         2    8[COMMON] unsigned int 
  8057 ;;  dividend        2   10[COMMON] unsigned int 
  8058 ;; Auto vars:     Size  Location     Type
  8059 ;;  __lwmod         1   13[COMMON] unsigned char 
  8060 ;; Return value:  Size  Location     Type
  8061 ;;                  2    8[COMMON] unsigned int 
  8062 ;; Registers used:
  8063 ;;		wreg, status,2, status,0
  8064 ;; Tracked objects:
  8065 ;;		On entry : 0/0
  8066 ;;		On exit  : 0/0
  8067 ;;		Unchanged: 0/0
  8068 ;; Data sizes:     COMMON   BANK0   BANK1   BANK2   BANK3   BANK4   BANK5   BANK6   BANK7   BANK8   BANK9  BANK10  BANK1
      +1  BANK12  BANK13  BANK14  BANK15  BANK16  BANK17  BANK18  BANK19  BANK20  BANK21  BANK22  BANK23  BANK24  BANK25  BANK2
      +6  BANK27  BANK28  BANK29  BANK30  BANK31  BANK32  BANK33  BANK34  BANK35  BANK36  BANK37  BANK38  BANK39  BANK40  BANK4
      +1  BANK42  BANK43  BANK44  BANK45  BANK46  BANK47  BANK48  BANK49  BANK50
  8069 ;;      Params:         4       0       0       0       0       0       0       0       0       0       0       0       
      +0       0       0       0       0       0       0       0       0       0       0       0       0       0       0       
      +0       0       0       0       0       0       0       0       0       0       0       0       0       0       0       
      +0       0       0       0       0       0       0       0       0       0
  8070 ;;      Locals:         1       0       0       0       0       0       0       0       0       0       0       0       
      +0       0       0       0       0       0       0       0       0       0       0       0       0       0       0       
      +0       0       0       0       0       0       0       0       0       0       0       0       0       0       0       
      +0       0       0       0       0       0       0       0       0       0
  8071 ;;      Temps:          1       0       0       0       0       0       0       0       0       0       0       0       
      +0       0       0       0       0       0       0       0       0       0       0       0       0       0       0       
      +0       0       0       0       0       0       0       0       0       0       0       0       0       0       0       
      +0       0       0       0       0       0       0       0       0       0
  8072 ;;      Totals:         6       0       0       0       0       0       0       0       0       0       0       0       
      +0       0       0       0       0       0       0       0       0       0       0       0       0       0       0       
      +0       0       0       0       0       0       0       0       0       0       0       0       0       0       0       
      +0       0       0       0       0       0       0       0       0       0
  8073 ;;Total ram usage:        6 bytes
  8074 ;; Hardware stack levels used:    1
  8075 ;; This function calls:
  8076 ;;		Nothing
  8077 ;; This function is called by:
  8078 ;;		i1_printf
  8079 ;; This function uses a non-reentrant model
  8080 ;;
  8081                           
  8082                           
  8083                           ;psect for function i1___lwmod
  8084  0DDD                     i1___lwmod:	
  8085                           
  8086                           ;incstack = 0
  8087                           ; Regs used in i1___lwmod: [wreg+status,2+status,0]
  8088  0DDD  0878               	movf	i1___lwmod@divisor,w
  8089  0DDE  0479               	iorwf	i1___lwmod@divisor+1,w
  8090  0DDF  1903               	btfsc	3,2
  8091  0DE0  2E04               	goto	i1l2021
  8092  0DE1  01FD               	clrf	i1___lwmod@counter
  8093  0DE2  0AFD               	incf	i1___lwmod@counter,f
  8094  0DE3                     i1l2011:	
  8095  0DE3  1BF9               	btfsc	i1___lwmod@divisor+1,7
  8096  0DE4  2DEF               	goto	i1l2013
  8097  0DE5  3001               	movlw	1
  8098  0DE6                     u208_25:	
  8099  0DE6  35F8               	lslf	i1___lwmod@divisor,f
  8100  0DE7  0DF9               	rlf	i1___lwmod@divisor+1,f
  8101  0DE8  0B89               	decfsz	9,f
  8102  0DE9  2DE6               	goto	u208_25
  8103  0DEA  3001               	movlw	1
  8104  0DEB  00FC               	movwf	??i1___lwmod
  8105  0DEC  087C               	movf	??i1___lwmod,w
  8106  0DED  07FD               	addwf	i1___lwmod@counter,f
  8107  0DEE  2DE3               	goto	i1l2011
  8108  0DEF                     i1l2013:	
  8109  0DEF  0879               	movf	i1___lwmod@divisor+1,w
  8110  0DF0  027B               	subwf	i1___lwmod@dividend+1,w
  8111  0DF1  1D03               	skipz
  8112  0DF2  2DF5               	goto	u210_25
  8113  0DF3  0878               	movf	i1___lwmod@divisor,w
  8114  0DF4  027A               	subwf	i1___lwmod@dividend,w
  8115  0DF5                     u210_25:	
  8116  0DF5  1C03               	skipc
  8117  0DF6  2DFB               	goto	i1l2017
  8118  0DF7  0878               	movf	i1___lwmod@divisor,w
  8119  0DF8  02FA               	subwf	i1___lwmod@dividend,f
  8120  0DF9  0879               	movf	i1___lwmod@divisor+1,w
  8121  0DFA  3BFB               	subwfb	i1___lwmod@dividend+1,f
  8122  0DFB                     i1l2017:	
  8123  0DFB  3001               	movlw	1
  8124  0DFC                     u211_25:	
  8125  0DFC  36F9               	lsrf	i1___lwmod@divisor+1,f
  8126  0DFD  0CF8               	rrf	i1___lwmod@divisor,f
  8127  0DFE  0B89               	decfsz	9,f
  8128  0DFF  2DFC               	goto	u211_25
  8129  0E00  3001               	movlw	1
  8130  0E01  02FD               	subwf	i1___lwmod@counter,f
  8131  0E02  1D03               	btfss	3,2
  8132  0E03  2DEF               	goto	i1l2013
  8133  0E04                     i1l2021:	
  8134  0E04  087B               	movf	i1___lwmod@dividend+1,w
  8135  0E05  00F9               	movwf	?i1___lwmod+1
  8136  0E06  087A               	movf	i1___lwmod@dividend,w
  8137  0E07  00F8               	movwf	?i1___lwmod
  8138  0E08  0008               	return
  8139  0E09                     __end_ofi1___lwmod:	
  8140                           
  8141                           	psect	text28
  8142  0E09                     __ptext28:	
  8143 ;; *************** function i1___lwdiv *****************
  8144 ;; Defined at:
  8145 ;;		line 6 in file "C:\Program Files (x86)\Microchip\xc8\v1.45\sources\common\lwdiv.c"
  8146 ;; Parameters:    Size  Location     Type
  8147 ;;  divisor         2    0[COMMON] unsigned int 
  8148 ;;  dividend        2    2[COMMON] unsigned int 
  8149 ;; Auto vars:     Size  Location     Type
  8150 ;;  __lwdiv         2    5[COMMON] unsigned int 
  8151 ;;  __lwdiv         1    7[COMMON] unsigned char 
  8152 ;; Return value:  Size  Location     Type
  8153 ;;                  2    0[COMMON] unsigned int 
  8154 ;; Registers used:
  8155 ;;		wreg, status,2, status,0
  8156 ;; Tracked objects:
  8157 ;;		On entry : 0/0
  8158 ;;		On exit  : 0/0
  8159 ;;		Unchanged: 0/0
  8160 ;; Data sizes:     COMMON   BANK0   BANK1   BANK2   BANK3   BANK4   BANK5   BANK6   BANK7   BANK8   BANK9  BANK10  BANK1
      +1  BANK12  BANK13  BANK14  BANK15  BANK16  BANK17  BANK18  BANK19  BANK20  BANK21  BANK22  BANK23  BANK24  BANK25  BANK2
      +6  BANK27  BANK28  BANK29  BANK30  BANK31  BANK32  BANK33  BANK34  BANK35  BANK36  BANK37  BANK38  BANK39  BANK40  BANK4
      +1  BANK42  BANK43  BANK44  BANK45  BANK46  BANK47  BANK48  BANK49  BANK50
  8161 ;;      Params:         4       0       0       0       0       0       0       0       0       0       0       0       
      +0       0       0       0       0       0       0       0       0       0       0       0       0       0       0       
      +0       0       0       0       0       0       0       0       0       0       0       0       0       0       0       
      +0       0       0       0       0       0       0       0       0       0
  8162 ;;      Locals:         3       0       0       0       0       0       0       0       0       0       0       0       
      +0       0       0       0       0       0       0       0       0       0       0       0       0       0       0       
      +0       0       0       0       0       0       0       0       0       0       0       0       0       0       0       
      +0       0       0       0       0       0       0       0       0       0
  8163 ;;      Temps:          1       0       0       0       0       0       0       0       0       0       0       0       
      +0       0       0       0       0       0       0       0       0       0       0       0       0       0       0       
      +0       0       0       0       0       0       0       0       0       0       0       0       0       0       0       
      +0       0       0       0       0       0       0       0       0       0
  8164 ;;      Totals:         8       0       0       0       0       0       0       0       0       0       0       0       
      +0       0       0       0       0       0       0       0       0       0       0       0       0       0       0       
      +0       0       0       0       0       0       0       0       0       0       0       0       0       0       0       
      +0       0       0       0       0       0       0       0       0       0
  8165 ;;Total ram usage:        8 bytes
  8166 ;; Hardware stack levels used:    1
  8167 ;; This function calls:
  8168 ;;		Nothing
  8169 ;; This function is called by:
  8170 ;;		i1_printf
  8171 ;; This function uses a non-reentrant model
  8172 ;;
  8173                           
  8174                           
  8175                           ;psect for function i1___lwdiv
  8176  0E09                     i1___lwdiv:	
  8177                           
  8178                           ;incstack = 0
  8179                           ; Regs used in i1___lwdiv: [wreg+status,2+status,0]
  8180  0E09  01F5               	clrf	i1___lwdiv@quotient
  8181  0E0A  01F6               	clrf	i1___lwdiv@quotient+1
  8182  0E0B  0870               	movf	i1___lwdiv@divisor,w
  8183  0E0C  0471               	iorwf	i1___lwdiv@divisor+1,w
  8184  0E0D  1903               	btfsc	3,2
  8185  0E0E  2E38               	goto	i1l1999
  8186  0E0F  01F7               	clrf	i1___lwdiv@counter
  8187  0E10  0AF7               	incf	i1___lwdiv@counter,f
  8188  0E11                     i1l1987:	
  8189  0E11  1BF1               	btfsc	i1___lwdiv@divisor+1,7
  8190  0E12  2E1D               	goto	i1l1989
  8191  0E13  3001               	movlw	1
  8192  0E14                     u201_25:	
  8193  0E14  35F0               	lslf	i1___lwdiv@divisor,f
  8194  0E15  0DF1               	rlf	i1___lwdiv@divisor+1,f
  8195  0E16  0B89               	decfsz	9,f
  8196  0E17  2E14               	goto	u201_25
  8197  0E18  3001               	movlw	1
  8198  0E19  00F4               	movwf	??i1___lwdiv
  8199  0E1A  0874               	movf	??i1___lwdiv,w
  8200  0E1B  07F7               	addwf	i1___lwdiv@counter,f
  8201  0E1C  2E11               	goto	i1l1987
  8202  0E1D                     i1l1989:	
  8203  0E1D  3001               	movlw	1
  8204  0E1E                     u203_25:	
  8205  0E1E  35F5               	lslf	i1___lwdiv@quotient,f
  8206  0E1F  0DF6               	rlf	i1___lwdiv@quotient+1,f
  8207  0E20  0B89               	decfsz	9,f
  8208  0E21  2E1E               	goto	u203_25
  8209  0E22  0871               	movf	i1___lwdiv@divisor+1,w
  8210  0E23  0273               	subwf	i1___lwdiv@dividend+1,w
  8211  0E24  1D03               	skipz
  8212  0E25  2E28               	goto	u204_25
  8213  0E26  0870               	movf	i1___lwdiv@divisor,w
  8214  0E27  0272               	subwf	i1___lwdiv@dividend,w
  8215  0E28                     u204_25:	
  8216  0E28  1C03               	skipc
  8217  0E29  2E2F               	goto	i1l1995
  8218  0E2A  0870               	movf	i1___lwdiv@divisor,w
  8219  0E2B  02F2               	subwf	i1___lwdiv@dividend,f
  8220  0E2C  0871               	movf	i1___lwdiv@divisor+1,w
  8221  0E2D  3BF3               	subwfb	i1___lwdiv@dividend+1,f
  8222  0E2E  1475               	bsf	i1___lwdiv@quotient,0
  8223  0E2F                     i1l1995:	
  8224  0E2F  3001               	movlw	1
  8225  0E30                     u205_25:	
  8226  0E30  36F1               	lsrf	i1___lwdiv@divisor+1,f
  8227  0E31  0CF0               	rrf	i1___lwdiv@divisor,f
  8228  0E32  0B89               	decfsz	9,f
  8229  0E33  2E30               	goto	u205_25
  8230  0E34  3001               	movlw	1
  8231  0E35  02F7               	subwf	i1___lwdiv@counter,f
  8232  0E36  1D03               	btfss	3,2
  8233  0E37  2E1D               	goto	i1l1989
  8234  0E38                     i1l1999:	
  8235  0E38  0876               	movf	i1___lwdiv@quotient+1,w
  8236  0E39  00F1               	movwf	?i1___lwdiv+1
  8237  0E3A  0875               	movf	i1___lwdiv@quotient,w
  8238  0E3B  00F0               	movwf	?i1___lwdiv
  8239  0E3C  0008               	return
  8240  0E3D                     __end_ofi1___lwdiv:	
  8241                           
  8242                           	psect	text29
  8243  069F                     __ptext29:	
  8244 ;; *************** function i1___ftdiv *****************
  8245 ;; Defined at:
  8246 ;;		line 56 in file "C:\Program Files (x86)\Microchip\xc8\v1.45\sources\common\ftdiv.c"
  8247 ;; Parameters:    Size  Location     Type
  8248 ;;  f2              3    8[COMMON] float 
  8249 ;;  f1              3   11[COMMON] float 
  8250 ;; Auto vars:     Size  Location     Type
  8251 ;;  __ftdiv         3    5[BANK0 ] float 
  8252 ;;  __ftdiv         1    9[BANK0 ] unsigned char 
  8253 ;;  __ftdiv         1    8[BANK0 ] unsigned char 
  8254 ;;  __ftdiv         1    4[BANK0 ] unsigned char 
  8255 ;; Return value:  Size  Location     Type
  8256 ;;                  3    8[COMMON] float 
  8257 ;; Registers used:
  8258 ;;		wreg, status,2, status,0, pclath, cstack
  8259 ;; Tracked objects:
  8260 ;;		On entry : 0/0
  8261 ;;		On exit  : 0/0
  8262 ;;		Unchanged: 0/0
  8263 ;; Data sizes:     COMMON   BANK0   BANK1   BANK2   BANK3   BANK4   BANK5   BANK6   BANK7   BANK8   BANK9  BANK10  BANK1
      +1  BANK12  BANK13  BANK14  BANK15  BANK16  BANK17  BANK18  BANK19  BANK20  BANK21  BANK22  BANK23  BANK24  BANK25  BANK2
      +6  BANK27  BANK28  BANK29  BANK30  BANK31  BANK32  BANK33  BANK34  BANK35  BANK36  BANK37  BANK38  BANK39  BANK40  BANK4
      +1  BANK42  BANK43  BANK44  BANK45  BANK46  BANK47  BANK48  BANK49  BANK50
  8264 ;;      Params:         6       0       0       0       0       0       0       0       0       0       0       0       
      +0       0       0       0       0       0       0       0       0       0       0       0       0       0       0       
      +0       0       0       0       0       0       0       0       0       0       0       0       0       0       0       
      +0       0       0       0       0       0       0       0       0       0
  8265 ;;      Locals:         0       6       0       0       0       0       0       0       0       0       0       0       
      +0       0       0       0       0       0       0       0       0       0       0       0       0       0       0       
      +0       0       0       0       0       0       0       0       0       0       0       0       0       0       0       
      +0       0       0       0       0       0       0       0       0       0
  8266 ;;      Temps:          0       4       0       0       0       0       0       0       0       0       0       0       
      +0       0       0       0       0       0       0       0       0       0       0       0       0       0       0       
      +0       0       0       0       0       0       0       0       0       0       0       0       0       0       0       
      +0       0       0       0       0       0       0       0       0       0
  8267 ;;      Totals:         6      10       0       0       0       0       0       0       0       0       0       0       
      +0       0       0       0       0       0       0       0       0       0       0       0       0       0       0       
      +0       0       0       0       0       0       0       0       0       0       0       0       0       0       0       
      +0       0       0       0       0       0       0       0       0       0
  8268 ;;Total ram usage:       16 bytes
  8269 ;; Hardware stack levels used:    1
  8270 ;; Hardware stack levels required when called:    1
  8271 ;; This function calls:
  8272 ;;		i1___ftpack
  8273 ;; This function is called by:
  8274 ;;		_TMR2_ISR
  8275 ;; This function uses a non-reentrant model
  8276 ;;
  8277                           
  8278                           
  8279                           ;psect for function i1___ftdiv
  8280  069F                     i1___ftdiv:	
  8281                           
  8282                           ;incstack = 0
  8283                           ; Regs used in i1___ftdiv: [wreg+status,2+status,0+pclath+cstack]
  8284  069F  087B               	movf	i1___ftdiv@f1,w
  8285  06A0  0140               	movlb	0	; select bank0
  8286  06A1  00A0               	movwf	??i1___ftdiv
  8287  06A2  087C               	movf	i1___ftdiv@f1+1,w
  8288  06A3  00A1               	movwf	??i1___ftdiv+1
  8289  06A4  087D               	movf	i1___ftdiv@f1+2,w
  8290  06A5  00A2               	movwf	??i1___ftdiv+2
  8291  06A6  1003               	clrc
  8292  06A7  0D21               	rlf	??i1___ftdiv+1,w
  8293  06A8  0D22               	rlf	??i1___ftdiv+2,w
  8294  06A9  00A3               	movwf	??i1___ftdiv+3
  8295  06AA  0823               	movf	??i1___ftdiv+3,w
  8296  06AB  00A8               	movwf	i1___ftdiv@exp
  8297  06AC  0828               	movf	i1___ftdiv@exp,w
  8298  06AD  1D03               	btfss	3,2
  8299  06AE  2EB6               	goto	i1l2363
  8300  06AF  3000               	movlw	0
  8301  06B0  00F8               	movwf	?i1___ftdiv
  8302  06B1  3000               	movlw	0
  8303  06B2  00F9               	movwf	?i1___ftdiv+1
  8304  06B3  3000               	movlw	0
  8305  06B4  00FA               	movwf	?i1___ftdiv+2
  8306  06B5  0008               	return
  8307  06B6                     i1l2363:	
  8308  06B6  0878               	movf	i1___ftdiv@f2,w
  8309  06B7  00A0               	movwf	??i1___ftdiv
  8310  06B8  0879               	movf	i1___ftdiv@f2+1,w
  8311  06B9  00A1               	movwf	??i1___ftdiv+1
  8312  06BA  087A               	movf	i1___ftdiv@f2+2,w
  8313  06BB  00A2               	movwf	??i1___ftdiv+2
  8314  06BC  1003               	clrc
  8315  06BD  0D21               	rlf	??i1___ftdiv+1,w
  8316  06BE  0D22               	rlf	??i1___ftdiv+2,w
  8317  06BF  00A3               	movwf	??i1___ftdiv+3
  8318  06C0  0823               	movf	??i1___ftdiv+3,w
  8319  06C1  00A9               	movwf	i1___ftdiv@sign
  8320  06C2  0829               	movf	i1___ftdiv@sign,w
  8321  06C3  1D03               	btfss	3,2
  8322  06C4  2ECC               	goto	i1l2369
  8323  06C5  3000               	movlw	0
  8324  06C6  00F8               	movwf	?i1___ftdiv
  8325  06C7  3000               	movlw	0
  8326  06C8  00F9               	movwf	?i1___ftdiv+1
  8327  06C9  3000               	movlw	0
  8328  06CA  00FA               	movwf	?i1___ftdiv+2
  8329  06CB  0008               	return
  8330  06CC                     i1l2369:	
  8331  06CC  3000               	movlw	0
  8332  06CD  00A5               	movwf	i1___ftdiv@f3
  8333  06CE  3000               	movlw	0
  8334  06CF  00A6               	movwf	i1___ftdiv@f3+1
  8335  06D0  3000               	movlw	0
  8336  06D1  00A7               	movwf	i1___ftdiv@f3+2
  8337  06D2  3089               	movlw	137
  8338  06D3  0729               	addwf	i1___ftdiv@sign,w
  8339  06D4  00A0               	movwf	??i1___ftdiv
  8340  06D5  0820               	movf	??i1___ftdiv,w
  8341  06D6  02A8               	subwf	i1___ftdiv@exp,f
  8342  06D7  087B               	movf	i1___ftdiv@f1,w
  8343  06D8  00A0               	movwf	??i1___ftdiv
  8344  06D9  087C               	movf	i1___ftdiv@f1+1,w
  8345  06DA  00A1               	movwf	??i1___ftdiv+1
  8346  06DB  087D               	movf	i1___ftdiv@f1+2,w
  8347  06DC  00A2               	movwf	??i1___ftdiv+2
  8348  06DD  3010               	movlw	16
  8349  06DE                     u283_25:	
  8350  06DE  36A2               	lsrf	??i1___ftdiv+2,f
  8351  06DF  0CA1               	rrf	??i1___ftdiv+1,f
  8352  06E0  0CA0               	rrf	??i1___ftdiv,f
  8353  06E1  0B89               	decfsz	9,f
  8354  06E2  2EDE               	goto	u283_25
  8355  06E3  0820               	movf	??i1___ftdiv,w
  8356  06E4  00A3               	movwf	??i1___ftdiv+3
  8357  06E5  0823               	movf	??i1___ftdiv+3,w
  8358  06E6  00A9               	movwf	i1___ftdiv@sign
  8359  06E7  0878               	movf	i1___ftdiv@f2,w
  8360  06E8  00A0               	movwf	??i1___ftdiv
  8361  06E9  0879               	movf	i1___ftdiv@f2+1,w
  8362  06EA  00A1               	movwf	??i1___ftdiv+1
  8363  06EB  087A               	movf	i1___ftdiv@f2+2,w
  8364  06EC  00A2               	movwf	??i1___ftdiv+2
  8365  06ED  3010               	movlw	16
  8366  06EE                     u284_25:	
  8367  06EE  36A2               	lsrf	??i1___ftdiv+2,f
  8368  06EF  0CA1               	rrf	??i1___ftdiv+1,f
  8369  06F0  0CA0               	rrf	??i1___ftdiv,f
  8370  06F1  0B89               	decfsz	9,f
  8371  06F2  2EEE               	goto	u284_25
  8372  06F3  0820               	movf	??i1___ftdiv,w
  8373  06F4  00A3               	movwf	??i1___ftdiv+3
  8374  06F5  0823               	movf	??i1___ftdiv+3,w
  8375  06F6  06A9               	xorwf	i1___ftdiv@sign,f
  8376  06F7  3080               	movlw	128
  8377  06F8  00A0               	movwf	??i1___ftdiv
  8378  06F9  0820               	movf	??i1___ftdiv,w
  8379  06FA  05A9               	andwf	i1___ftdiv@sign,f
  8380  06FB  17FC               	bsf	i1___ftdiv@f1+1,7
  8381  06FC  30FF               	movlw	255
  8382  06FD  05FB               	andwf	i1___ftdiv@f1,f
  8383  06FE  30FF               	movlw	255
  8384  06FF  05FC               	andwf	i1___ftdiv@f1+1,f
  8385  0700  3000               	movlw	0
  8386  0701  05FD               	andwf	i1___ftdiv@f1+2,f
  8387  0702  17F9               	bsf	i1___ftdiv@f2+1,7
  8388  0703  30FF               	movlw	255
  8389  0704  05F8               	andwf	i1___ftdiv@f2,f
  8390  0705  30FF               	movlw	255
  8391  0706  05F9               	andwf	i1___ftdiv@f2+1,f
  8392  0707  3000               	movlw	0
  8393  0708  05FA               	andwf	i1___ftdiv@f2+2,f
  8394  0709  3018               	movlw	24
  8395  070A  00A0               	movwf	??i1___ftdiv
  8396  070B  0820               	movf	??i1___ftdiv,w
  8397  070C  00A4               	movwf	i1___ftdiv@cntr
  8398  070D                     i1l2383:	
  8399  070D  3001               	movlw	1
  8400  070E                     u285_25:	
  8401  070E  35A5               	lslf	i1___ftdiv@f3,f
  8402  070F  0DA6               	rlf	i1___ftdiv@f3+1,f
  8403  0710  0DA7               	rlf	i1___ftdiv@f3+2,f
  8404  0711  0B89               	decfsz	9,f
  8405  0712  2F0E               	goto	u285_25
  8406  0713  087A               	movf	i1___ftdiv@f2+2,w
  8407  0714  027D               	subwf	i1___ftdiv@f1+2,w
  8408  0715  1D03               	skipz
  8409  0716  2F1D               	goto	u286_25
  8410  0717  0879               	movf	i1___ftdiv@f2+1,w
  8411  0718  027C               	subwf	i1___ftdiv@f1+1,w
  8412  0719  1D03               	skipz
  8413  071A  2F1D               	goto	u286_25
  8414  071B  0878               	movf	i1___ftdiv@f2,w
  8415  071C  027B               	subwf	i1___ftdiv@f1,w
  8416  071D                     u286_25:	
  8417  071D  1C03               	skipc
  8418  071E  2F26               	goto	i1l2391
  8419  071F  0878               	movf	i1___ftdiv@f2,w
  8420  0720  02FB               	subwf	i1___ftdiv@f1,f
  8421  0721  0879               	movf	i1___ftdiv@f2+1,w
  8422  0722  3BFC               	subwfb	i1___ftdiv@f1+1,f
  8423  0723  087A               	movf	i1___ftdiv@f2+2,w
  8424  0724  3BFD               	subwfb	i1___ftdiv@f1+2,f
  8425  0725  1425               	bsf	i1___ftdiv@f3,0
  8426  0726                     i1l2391:	
  8427  0726  3001               	movlw	1
  8428  0727                     u287_25:	
  8429  0727  35FB               	lslf	i1___ftdiv@f1,f
  8430  0728  0DFC               	rlf	i1___ftdiv@f1+1,f
  8431  0729  0DFD               	rlf	i1___ftdiv@f1+2,f
  8432  072A  0B89               	decfsz	9,f
  8433  072B  2F27               	goto	u287_25
  8434  072C  3001               	movlw	1
  8435  072D  02A4               	subwf	i1___ftdiv@cntr,f
  8436  072E  1D03               	btfss	3,2
  8437  072F  2F0D               	goto	i1l2383
  8438  0730  0825               	movf	i1___ftdiv@f3,w
  8439  0731  00F0               	movwf	i1___ftpack@arg
  8440  0732  0826               	movf	i1___ftdiv@f3+1,w
  8441  0733  00F1               	movwf	i1___ftpack@arg+1
  8442  0734  0827               	movf	i1___ftdiv@f3+2,w
  8443  0735  00F2               	movwf	i1___ftpack@arg+2
  8444  0736  0828               	movf	i1___ftdiv@exp,w
  8445  0737  00A0               	movwf	??i1___ftdiv
  8446  0738  0820               	movf	??i1___ftdiv,w
  8447  0739  00F3               	movwf	i1___ftpack@exp
  8448  073A  0829               	movf	i1___ftdiv@sign,w
  8449  073B  00A1               	movwf	??i1___ftdiv+1
  8450  073C  0821               	movf	??i1___ftdiv+1,w
  8451  073D  00F4               	movwf	i1___ftpack@sign
  8452  073E  318F  2737         	fcall	i1___ftpack
  8453  0740  0870               	movf	?i1___ftpack,w
  8454  0741  00F8               	movwf	?i1___ftdiv
  8455  0742  0871               	movf	?i1___ftpack+1,w
  8456  0743  00F9               	movwf	?i1___ftdiv+1
  8457  0744  0872               	movf	?i1___ftpack+2,w
  8458  0745  00FA               	movwf	?i1___ftdiv+2
  8459  0746  0008               	return
  8460  0747                     __end_ofi1___ftdiv:	
  8461                           
  8462                           	psect	text30
  8463  0281                     __ptext30:	
  8464 ;; *************** function i1___ftadd *****************
  8465 ;; Defined at:
  8466 ;;		line 86 in file "C:\Program Files (x86)\Microchip\xc8\v1.45\sources\common\ftadd.c"
  8467 ;; Parameters:    Size  Location     Type
  8468 ;;  f1              3    8[COMMON] float 
  8469 ;;  f2              3   11[COMMON] float 
  8470 ;; Auto vars:     Size  Location     Type
  8471 ;;  __ftadd         1    6[BANK0 ] unsigned char 
  8472 ;;  __ftadd         1    5[BANK0 ] unsigned char 
  8473 ;;  __ftadd         1    4[BANK0 ] unsigned char 
  8474 ;; Return value:  Size  Location     Type
  8475 ;;                  3    8[COMMON] float 
  8476 ;; Registers used:
  8477 ;;		wreg, status,2, status,0, pclath, cstack
  8478 ;; Tracked objects:
  8479 ;;		On entry : 0/0
  8480 ;;		On exit  : 0/0
  8481 ;;		Unchanged: 0/0
  8482 ;; Data sizes:     COMMON   BANK0   BANK1   BANK2   BANK3   BANK4   BANK5   BANK6   BANK7   BANK8   BANK9  BANK10  BANK1
      +1  BANK12  BANK13  BANK14  BANK15  BANK16  BANK17  BANK18  BANK19  BANK20  BANK21  BANK22  BANK23  BANK24  BANK25  BANK2
      +6  BANK27  BANK28  BANK29  BANK30  BANK31  BANK32  BANK33  BANK34  BANK35  BANK36  BANK37  BANK38  BANK39  BANK40  BANK4
      +1  BANK42  BANK43  BANK44  BANK45  BANK46  BANK47  BANK48  BANK49  BANK50
  8483 ;;      Params:         6       0       0       0       0       0       0       0       0       0       0       0       
      +0       0       0       0       0       0       0       0       0       0       0       0       0       0       0       
      +0       0       0       0       0       0       0       0       0       0       0       0       0       0       0       
      +0       0       0       0       0       0       0       0       0       0
  8484 ;;      Locals:         0       3       0       0       0       0       0       0       0       0       0       0       
      +0       0       0       0       0       0       0       0       0       0       0       0       0       0       0       
      +0       0       0       0       0       0       0       0       0       0       0       0       0       0       0       
      +0       0       0       0       0       0       0       0       0       0
  8485 ;;      Temps:          0       4       0       0       0       0       0       0       0       0       0       0       
      +0       0       0       0       0       0       0       0       0       0       0       0       0       0       0       
      +0       0       0       0       0       0       0       0       0       0       0       0       0       0       0       
      +0       0       0       0       0       0       0       0       0       0
  8486 ;;      Totals:         6       7       0       0       0       0       0       0       0       0       0       0       
      +0       0       0       0       0       0       0       0       0       0       0       0       0       0       0       
      +0       0       0       0       0       0       0       0       0       0       0       0       0       0       0       
      +0       0       0       0       0       0       0       0       0       0
  8487 ;;Total ram usage:       13 bytes
  8488 ;; Hardware stack levels used:    1
  8489 ;; Hardware stack levels required when called:    1
  8490 ;; This function calls:
  8491 ;;		i1___ftpack
  8492 ;; This function is called by:
  8493 ;;		_TMR2_ISR
  8494 ;; This function uses a non-reentrant model
  8495 ;;
  8496                           
  8497                           
  8498                           ;psect for function i1___ftadd
  8499  0281                     i1___ftadd:	
  8500                           
  8501                           ;incstack = 0
  8502                           ; Regs used in i1___ftadd: [wreg+status,2+status,0+pclath+cstack]
  8503  0281  0878               	movf	i1___ftadd@f1,w
  8504  0282  0140               	movlb	0	; select bank0
  8505  0283  00A0               	movwf	??i1___ftadd
  8506  0284  0879               	movf	i1___ftadd@f1+1,w
  8507  0285  00A1               	movwf	??i1___ftadd+1
  8508  0286  087A               	movf	i1___ftadd@f1+2,w
  8509  0287  00A2               	movwf	??i1___ftadd+2
  8510  0288  1003               	clrc
  8511  0289  0D21               	rlf	??i1___ftadd+1,w
  8512  028A  0D22               	rlf	??i1___ftadd+2,w
  8513  028B  00A3               	movwf	??i1___ftadd+3
  8514  028C  0823               	movf	??i1___ftadd+3,w
  8515  028D  00A6               	movwf	i1___ftadd@exp1
  8516  028E  087B               	movf	i1___ftadd@f2,w
  8517  028F  00A0               	movwf	??i1___ftadd
  8518  0290  087C               	movf	i1___ftadd@f2+1,w
  8519  0291  00A1               	movwf	??i1___ftadd+1
  8520  0292  087D               	movf	i1___ftadd@f2+2,w
  8521  0293  00A2               	movwf	??i1___ftadd+2
  8522  0294  1003               	clrc
  8523  0295  0D21               	rlf	??i1___ftadd+1,w
  8524  0296  0D22               	rlf	??i1___ftadd+2,w
  8525  0297  00A3               	movwf	??i1___ftadd+3
  8526  0298  0823               	movf	??i1___ftadd+3,w
  8527  0299  00A5               	movwf	i1___ftadd@exp2
  8528  029A  0826               	movf	i1___ftadd@exp1,w
  8529  029B  1903               	btfsc	3,2
  8530  029C  2AA9               	goto	i1l2293
  8531  029D  0825               	movf	i1___ftadd@exp2,w
  8532  029E  0226               	subwf	i1___ftadd@exp1,w
  8533  029F  1803               	skipnc
  8534  02A0  2AB0               	goto	i1l2297
  8535  02A1  0326               	decf	i1___ftadd@exp1,w
  8536  02A2  3AFF               	xorlw	255
  8537  02A3  0725               	addwf	i1___ftadd@exp2,w
  8538  02A4  00A0               	movwf	??i1___ftadd
  8539  02A5  3019               	movlw	25
  8540  02A6  0220               	subwf	??i1___ftadd,w
  8541  02A7  1C03               	skipc
  8542  02A8  2AB0               	goto	i1l2297
  8543  02A9                     i1l2293:	
  8544  02A9  087B               	movf	i1___ftadd@f2,w
  8545  02AA  00F8               	movwf	?i1___ftadd
  8546  02AB  087C               	movf	i1___ftadd@f2+1,w
  8547  02AC  00F9               	movwf	?i1___ftadd+1
  8548  02AD  087D               	movf	i1___ftadd@f2+2,w
  8549  02AE  00FA               	movwf	?i1___ftadd+2
  8550  02AF  0008               	return
  8551  02B0                     i1l2297:	
  8552  02B0  0825               	movf	i1___ftadd@exp2,w
  8553  02B1  1903               	btfsc	3,2
  8554  02B2  0008               	return
  8555  02B3  0826               	movf	i1___ftadd@exp1,w
  8556  02B4  0225               	subwf	i1___ftadd@exp2,w
  8557  02B5  1803               	skipnc
  8558  02B6  2ABF               	goto	i1l2303
  8559  02B7  0325               	decf	i1___ftadd@exp2,w
  8560  02B8  3AFF               	xorlw	255
  8561  02B9  0726               	addwf	i1___ftadd@exp1,w
  8562  02BA  00A0               	movwf	??i1___ftadd
  8563  02BB  3019               	movlw	25
  8564  02BC  0220               	subwf	??i1___ftadd,w
  8565  02BD  1803               	btfsc	3,0
  8566  02BE  0008               	return
  8567  02BF                     i1l2303:	
  8568  02BF  3006               	movlw	6
  8569  02C0  00A0               	movwf	??i1___ftadd
  8570  02C1  0820               	movf	??i1___ftadd,w
  8571  02C2  00A4               	movwf	i1___ftadd@sign
  8572  02C3  1BFA               	btfsc	i1___ftadd@f1+2,7
  8573  02C4  17A4               	bsf	i1___ftadd@sign,7
  8574  02C5  1BFD               	btfsc	i1___ftadd@f2+2,7
  8575  02C6  1724               	bsf	i1___ftadd@sign,6
  8576  02C7  17F9               	bsf	i1___ftadd@f1+1,7
  8577  02C8  30FF               	movlw	255
  8578  02C9  05F8               	andwf	i1___ftadd@f1,f
  8579  02CA  30FF               	movlw	255
  8580  02CB  05F9               	andwf	i1___ftadd@f1+1,f
  8581  02CC  3000               	movlw	0
  8582  02CD  05FA               	andwf	i1___ftadd@f1+2,f
  8583  02CE  17FC               	bsf	i1___ftadd@f2+1,7
  8584  02CF  30FF               	movlw	255
  8585  02D0  05FB               	andwf	i1___ftadd@f2,f
  8586  02D1  30FF               	movlw	255
  8587  02D2  05FC               	andwf	i1___ftadd@f2+1,f
  8588  02D3  3000               	movlw	0
  8589  02D4  05FD               	andwf	i1___ftadd@f2+2,f
  8590  02D5  0825               	movf	i1___ftadd@exp2,w
  8591  02D6  0226               	subwf	i1___ftadd@exp1,w
  8592  02D7  1803               	skipnc
  8593  02D8  2AFB               	goto	i1l2325
  8594  02D9                     i1l2315:	
  8595  02D9  3001               	movlw	1
  8596  02DA                     u267_25:	
  8597  02DA  35FB               	lslf	i1___ftadd@f2,f
  8598  02DB  0DFC               	rlf	i1___ftadd@f2+1,f
  8599  02DC  0DFD               	rlf	i1___ftadd@f2+2,f
  8600  02DD  0B89               	decfsz	9,f
  8601  02DE  2ADA               	goto	u267_25
  8602  02DF  3001               	movlw	1
  8603  02E0  02A5               	subwf	i1___ftadd@exp2,f
  8604  02E1  0825               	movf	i1___ftadd@exp2,w
  8605  02E2  0626               	xorwf	i1___ftadd@exp1,w
  8606  02E3  1903               	skipnz
  8607  02E4  2AF6               	goto	i1l2323
  8608  02E5  3001               	movlw	1
  8609  02E6  02A4               	subwf	i1___ftadd@sign,f
  8610  02E7  0824               	movf	i1___ftadd@sign,w
  8611  02E8  3907               	andlw	7
  8612  02E9  1903               	btfsc	3,2
  8613  02EA  2AF6               	goto	i1l2323
  8614  02EB  2AD9               	goto	i1l2315
  8615  02EC                     i1l2321:	
  8616  02EC  3001               	movlw	1
  8617  02ED                     u270_25:	
  8618  02ED  36FA               	lsrf	i1___ftadd@f1+2,f
  8619  02EE  0CF9               	rrf	i1___ftadd@f1+1,f
  8620  02EF  0CF8               	rrf	i1___ftadd@f1,f
  8621  02F0  0B89               	decfsz	9,f
  8622  02F1  2AED               	goto	u270_25
  8623  02F2  3001               	movlw	1
  8624  02F3  00A0               	movwf	??i1___ftadd
  8625  02F4  0820               	movf	??i1___ftadd,w
  8626  02F5  07A6               	addwf	i1___ftadd@exp1,f
  8627  02F6                     i1l2323:	
  8628  02F6  0826               	movf	i1___ftadd@exp1,w
  8629  02F7  0625               	xorwf	i1___ftadd@exp2,w
  8630  02F8  1903               	btfsc	3,2
  8631  02F9  2B20               	goto	i1l781
  8632  02FA  2AEC               	goto	i1l2321
  8633  02FB                     i1l2325:	
  8634  02FB  0826               	movf	i1___ftadd@exp1,w
  8635  02FC  0225               	subwf	i1___ftadd@exp2,w
  8636  02FD  1803               	skipnc
  8637  02FE  2B20               	goto	i1l781
  8638  02FF                     i1l2327:	
  8639  02FF  3001               	movlw	1
  8640  0300                     u273_25:	
  8641  0300  35F8               	lslf	i1___ftadd@f1,f
  8642  0301  0DF9               	rlf	i1___ftadd@f1+1,f
  8643  0302  0DFA               	rlf	i1___ftadd@f1+2,f
  8644  0303  0B89               	decfsz	9,f
  8645  0304  2B00               	goto	u273_25
  8646  0305  3001               	movlw	1
  8647  0306  02A6               	subwf	i1___ftadd@exp1,f
  8648  0307  0825               	movf	i1___ftadd@exp2,w
  8649  0308  0626               	xorwf	i1___ftadd@exp1,w
  8650  0309  1903               	skipnz
  8651  030A  2B1C               	goto	i1l2335
  8652  030B  3001               	movlw	1
  8653  030C  02A4               	subwf	i1___ftadd@sign,f
  8654  030D  0824               	movf	i1___ftadd@sign,w
  8655  030E  3907               	andlw	7
  8656  030F  1903               	btfsc	3,2
  8657  0310  2B1C               	goto	i1l2335
  8658  0311  2AFF               	goto	i1l2327
  8659  0312                     i1l2333:	
  8660  0312  3001               	movlw	1
  8661  0313                     u276_25:	
  8662  0313  36FD               	lsrf	i1___ftadd@f2+2,f
  8663  0314  0CFC               	rrf	i1___ftadd@f2+1,f
  8664  0315  0CFB               	rrf	i1___ftadd@f2,f
  8665  0316  0B89               	decfsz	9,f
  8666  0317  2B13               	goto	u276_25
  8667  0318  3001               	movlw	1
  8668  0319  00A0               	movwf	??i1___ftadd
  8669  031A  0820               	movf	??i1___ftadd,w
  8670  031B  07A5               	addwf	i1___ftadd@exp2,f
  8671  031C                     i1l2335:	
  8672  031C  0826               	movf	i1___ftadd@exp1,w
  8673  031D  0625               	xorwf	i1___ftadd@exp2,w
  8674  031E  1D03               	skipz
  8675  031F  2B12               	goto	i1l2333
  8676  0320                     i1l781:	
  8677  0320  1FA4               	btfss	i1___ftadd@sign,7
  8678  0321  2B32               	goto	i1l2339
  8679  0322  30FF               	movlw	255
  8680  0323  06F8               	xorwf	i1___ftadd@f1,f
  8681  0324  30FF               	movlw	255
  8682  0325  06F9               	xorwf	i1___ftadd@f1+1,f
  8683  0326  30FF               	movlw	255
  8684  0327  06FA               	xorwf	i1___ftadd@f1+2,f
  8685  0328  3001               	movlw	1
  8686  0329  07F8               	addwf	i1___ftadd@f1,f
  8687  032A  3000               	movlw	0
  8688  032B  1803               	skipnc
  8689  032C  3001               	movlw	1
  8690  032D  07F9               	addwf	i1___ftadd@f1+1,f
  8691  032E  3000               	movlw	0
  8692  032F  1803               	skipnc
  8693  0330  3001               	movlw	1
  8694  0331  07FA               	addwf	i1___ftadd@f1+2,f
  8695  0332                     i1l2339:	
  8696  0332  1F24               	btfss	i1___ftadd@sign,6
  8697  0333  2B44               	goto	i1l2343
  8698  0334  30FF               	movlw	255
  8699  0335  06FB               	xorwf	i1___ftadd@f2,f
  8700  0336  30FF               	movlw	255
  8701  0337  06FC               	xorwf	i1___ftadd@f2+1,f
  8702  0338  30FF               	movlw	255
  8703  0339  06FD               	xorwf	i1___ftadd@f2+2,f
  8704  033A  3001               	movlw	1
  8705  033B  07FB               	addwf	i1___ftadd@f2,f
  8706  033C  3000               	movlw	0
  8707  033D  1803               	skipnc
  8708  033E  3001               	movlw	1
  8709  033F  07FC               	addwf	i1___ftadd@f2+1,f
  8710  0340  3000               	movlw	0
  8711  0341  1803               	skipnc
  8712  0342  3001               	movlw	1
  8713  0343  07FD               	addwf	i1___ftadd@f2+2,f
  8714  0344                     i1l2343:	
  8715  0344  01A4               	clrf	i1___ftadd@sign
  8716  0345  0878               	movf	i1___ftadd@f1,w
  8717  0346  07FB               	addwf	i1___ftadd@f2,f
  8718  0347  0879               	movf	i1___ftadd@f1+1,w
  8719  0348  3DFC               	addwfc	i1___ftadd@f2+1,f
  8720  0349  087A               	movf	i1___ftadd@f1+2,w
  8721  034A  3DFD               	addwfc	i1___ftadd@f2+2,f
  8722  034B  1FFD               	btfss	i1___ftadd@f2+2,7
  8723  034C  2B5F               	goto	i1l2353
  8724  034D  30FF               	movlw	255
  8725  034E  06FB               	xorwf	i1___ftadd@f2,f
  8726  034F  30FF               	movlw	255
  8727  0350  06FC               	xorwf	i1___ftadd@f2+1,f
  8728  0351  30FF               	movlw	255
  8729  0352  06FD               	xorwf	i1___ftadd@f2+2,f
  8730  0353  3001               	movlw	1
  8731  0354  07FB               	addwf	i1___ftadd@f2,f
  8732  0355  3000               	movlw	0
  8733  0356  1803               	skipnc
  8734  0357  3001               	movlw	1
  8735  0358  07FC               	addwf	i1___ftadd@f2+1,f
  8736  0359  3000               	movlw	0
  8737  035A  1803               	skipnc
  8738  035B  3001               	movlw	1
  8739  035C  07FD               	addwf	i1___ftadd@f2+2,f
  8740  035D  01A4               	clrf	i1___ftadd@sign
  8741  035E  0AA4               	incf	i1___ftadd@sign,f
  8742  035F                     i1l2353:	
  8743  035F  087B               	movf	i1___ftadd@f2,w
  8744  0360  00F0               	movwf	i1___ftpack@arg
  8745  0361  087C               	movf	i1___ftadd@f2+1,w
  8746  0362  00F1               	movwf	i1___ftpack@arg+1
  8747  0363  087D               	movf	i1___ftadd@f2+2,w
  8748  0364  00F2               	movwf	i1___ftpack@arg+2
  8749  0365  0826               	movf	i1___ftadd@exp1,w
  8750  0366  00A0               	movwf	??i1___ftadd
  8751  0367  0820               	movf	??i1___ftadd,w
  8752  0368  00F3               	movwf	i1___ftpack@exp
  8753  0369  0824               	movf	i1___ftadd@sign,w
  8754  036A  00A1               	movwf	??i1___ftadd+1
  8755  036B  0821               	movf	??i1___ftadd+1,w
  8756  036C  00F4               	movwf	i1___ftpack@sign
  8757  036D  318F  2737         	fcall	i1___ftpack
  8758  036F  0870               	movf	?i1___ftpack,w
  8759  0370  00F8               	movwf	?i1___ftadd
  8760  0371  0871               	movf	?i1___ftpack+1,w
  8761  0372  00F9               	movwf	?i1___ftadd+1
  8762  0373  0872               	movf	?i1___ftpack+2,w
  8763  0374  00FA               	movwf	?i1___ftadd+2
  8764  0375  0008               	return
  8765  0376                     __end_ofi1___ftadd:	
  8766                           
  8767                           	psect	text31
  8768  0F37                     __ptext31:	
  8769 ;; *************** function i1___ftpack *****************
  8770 ;; Defined at:
  8771 ;;		line 62 in file "C:\Program Files (x86)\Microchip\xc8\v1.45\sources\common\float.c"
  8772 ;; Parameters:    Size  Location     Type
  8773 ;;  arg             3    0[COMMON] unsigned um
  8774 ;;  exp             1    3[COMMON] unsigned char 
  8775 ;;  sign            1    4[COMMON] unsigned char 
  8776 ;; Auto vars:     Size  Location     Type
  8777 ;;		None
  8778 ;; Return value:  Size  Location     Type
  8779 ;;                  3    0[COMMON] float 
  8780 ;; Registers used:
  8781 ;;		wreg, status,2, status,0
  8782 ;; Tracked objects:
  8783 ;;		On entry : 0/0
  8784 ;;		On exit  : 0/0
  8785 ;;		Unchanged: 0/0
  8786 ;; Data sizes:     COMMON   BANK0   BANK1   BANK2   BANK3   BANK4   BANK5   BANK6   BANK7   BANK8   BANK9  BANK10  BANK1
      +1  BANK12  BANK13  BANK14  BANK15  BANK16  BANK17  BANK18  BANK19  BANK20  BANK21  BANK22  BANK23  BANK24  BANK25  BANK2
      +6  BANK27  BANK28  BANK29  BANK30  BANK31  BANK32  BANK33  BANK34  BANK35  BANK36  BANK37  BANK38  BANK39  BANK40  BANK4
      +1  BANK42  BANK43  BANK44  BANK45  BANK46  BANK47  BANK48  BANK49  BANK50
  8787 ;;      Params:         5       0       0       0       0       0       0       0       0       0       0       0       
      +0       0       0       0       0       0       0       0       0       0       0       0       0       0       0       
      +0       0       0       0       0       0       0       0       0       0       0       0       0       0       0       
      +0       0       0       0       0       0       0       0       0       0
  8788 ;;      Locals:         0       0       0       0       0       0       0       0       0       0       0       0       
      +0       0       0       0       0       0       0       0       0       0       0       0       0       0       0       
      +0       0       0       0       0       0       0       0       0       0       0       0       0       0       0       
      +0       0       0       0       0       0       0       0       0       0
  8789 ;;      Temps:          3       0       0       0       0       0       0       0       0       0       0       0       
      +0       0       0       0       0       0       0       0       0       0       0       0       0       0       0       
      +0       0       0       0       0       0       0       0       0       0       0       0       0       0       0       
      +0       0       0       0       0       0       0       0       0       0
  8790 ;;      Totals:         8       0       0       0       0       0       0       0       0       0       0       0       
      +0       0       0       0       0       0       0       0       0       0       0       0       0       0       0       
      +0       0       0       0       0       0       0       0       0       0       0       0       0       0       0       
      +0       0       0       0       0       0       0       0       0       0
  8791 ;;Total ram usage:        8 bytes
  8792 ;; Hardware stack levels used:    1
  8793 ;; This function calls:
  8794 ;;		Nothing
  8795 ;; This function is called by:
  8796 ;;		i1___ftadd
  8797 ;;		i1___ftdiv
  8798 ;; This function uses a non-reentrant model
  8799 ;;
  8800                           
  8801                           
  8802                           ;psect for function i1___ftpack
  8803  0F37                     i1___ftpack:	
  8804                           
  8805                           ;incstack = 0
  8806                           ; Regs used in i1___ftpack: [wreg+status,2+status,0]
  8807  0F37  0873               	movf	i1___ftpack@exp,w
  8808  0F38  1903               	btfsc	3,2
  8809  0F39  2F3F               	goto	i1l1949
  8810  0F3A  0872               	movf	i1___ftpack@arg+2,w
  8811  0F3B  0471               	iorwf	i1___ftpack@arg+1,w
  8812  0F3C  0470               	iorwf	i1___ftpack@arg,w
  8813  0F3D  1D03               	skipz
  8814  0F3E  2F50               	goto	i1l1955
  8815  0F3F                     i1l1949:	
  8816  0F3F  3000               	movlw	0
  8817  0F40  00F0               	movwf	?i1___ftpack
  8818  0F41  3000               	movlw	0
  8819  0F42  00F1               	movwf	?i1___ftpack+1
  8820  0F43  3000               	movlw	0
  8821  0F44  00F2               	movwf	?i1___ftpack+2
  8822  0F45  0008               	return
  8823  0F46                     i1l1953:	
  8824  0F46  3001               	movlw	1
  8825  0F47  00F5               	movwf	??i1___ftpack
  8826  0F48  0875               	movf	??i1___ftpack,w
  8827  0F49  07F3               	addwf	i1___ftpack@exp,f
  8828  0F4A  3001               	movlw	1
  8829  0F4B                     u190_25:	
  8830  0F4B  36F2               	lsrf	i1___ftpack@arg+2,f
  8831  0F4C  0CF1               	rrf	i1___ftpack@arg+1,f
  8832  0F4D  0CF0               	rrf	i1___ftpack@arg,f
  8833  0F4E  0B89               	decfsz	9,f
  8834  0F4F  2F4B               	goto	u190_25
  8835  0F50                     i1l1955:	
  8836  0F50  30FE               	movlw	254
  8837  0F51  0572               	andwf	i1___ftpack@arg+2,w
  8838  0F52  1903               	btfsc	3,2
  8839  0F53  2F69               	goto	i1l750
  8840  0F54  2F46               	goto	i1l1953
  8841  0F55                     i1l1957:	
  8842  0F55  3001               	movlw	1
  8843  0F56  00F5               	movwf	??i1___ftpack
  8844  0F57  0875               	movf	??i1___ftpack,w
  8845  0F58  07F3               	addwf	i1___ftpack@exp,f
  8846  0F59  3001               	movlw	1
  8847  0F5A  07F0               	addwf	i1___ftpack@arg,f
  8848  0F5B  3000               	movlw	0
  8849  0F5C  1803               	skipnc
  8850  0F5D  3001               	movlw	1
  8851  0F5E  07F1               	addwf	i1___ftpack@arg+1,f
  8852  0F5F  3000               	movlw	0
  8853  0F60  1803               	skipnc
  8854  0F61  3001               	movlw	1
  8855  0F62  07F2               	addwf	i1___ftpack@arg+2,f
  8856  0F63  3001               	movlw	1
  8857  0F64                     u192_25:	
  8858  0F64  36F2               	lsrf	i1___ftpack@arg+2,f
  8859  0F65  0CF1               	rrf	i1___ftpack@arg+1,f
  8860  0F66  0CF0               	rrf	i1___ftpack@arg,f
  8861  0F67  0B89               	decfsz	9,f
  8862  0F68  2F64               	goto	u192_25
  8863  0F69                     i1l750:	
  8864  0F69  30FF               	movlw	255
  8865  0F6A  0572               	andwf	i1___ftpack@arg+2,w
  8866  0F6B  1903               	btfsc	3,2
  8867  0F6C  2F76               	goto	i1l1965
  8868  0F6D  2F55               	goto	i1l1957
  8869  0F6E                     i1l1963:	
  8870  0F6E  3001               	movlw	1
  8871  0F6F  02F3               	subwf	i1___ftpack@exp,f
  8872  0F70  3001               	movlw	1
  8873  0F71                     u194_25:	
  8874  0F71  35F0               	lslf	i1___ftpack@arg,f
  8875  0F72  0DF1               	rlf	i1___ftpack@arg+1,f
  8876  0F73  0DF2               	rlf	i1___ftpack@arg+2,f
  8877  0F74  0B89               	decfsz	9,f
  8878  0F75  2F71               	goto	u194_25
  8879  0F76                     i1l1965:	
  8880  0F76  1BF1               	btfsc	i1___ftpack@arg+1,7
  8881  0F77  2F7C               	goto	i1l757
  8882  0F78  3002               	movlw	2
  8883  0F79  0273               	subwf	i1___ftpack@exp,w
  8884  0F7A  1803               	skipnc
  8885  0F7B  2F6E               	goto	i1l1963
  8886  0F7C                     i1l757:	
  8887  0F7C  1873               	btfsc	i1___ftpack@exp,0
  8888  0F7D  2F84               	goto	i1l758
  8889  0F7E  30FF               	movlw	255
  8890  0F7F  05F0               	andwf	i1___ftpack@arg,f
  8891  0F80  307F               	movlw	127
  8892  0F81  05F1               	andwf	i1___ftpack@arg+1,f
  8893  0F82  30FF               	movlw	255
  8894  0F83  05F2               	andwf	i1___ftpack@arg+2,f
  8895  0F84                     i1l758:	
  8896  0F84  1003               	clrc
  8897  0F85  0CF3               	rrf	i1___ftpack@exp,f
  8898  0F86  0873               	movf	i1___ftpack@exp,w
  8899  0F87  00F5               	movwf	??i1___ftpack
  8900  0F88  01F6               	clrf	??i1___ftpack+1
  8901  0F89  01F7               	clrf	??i1___ftpack+2
  8902  0F8A  3010               	movlw	16
  8903  0F8B                     u198_25:	
  8904  0F8B  35F5               	lslf	??i1___ftpack,f
  8905  0F8C  0DF6               	rlf	??i1___ftpack+1,f
  8906  0F8D  0DF7               	rlf	??i1___ftpack+2,f
  8907  0F8E  0B89               	decfsz	9,f
  8908  0F8F  2F8B               	goto	u198_25
  8909  0F90  0875               	movf	??i1___ftpack,w
  8910  0F91  04F0               	iorwf	i1___ftpack@arg,f
  8911  0F92  0876               	movf	??i1___ftpack+1,w
  8912  0F93  04F1               	iorwf	i1___ftpack@arg+1,f
  8913  0F94  0877               	movf	??i1___ftpack+2,w
  8914  0F95  04F2               	iorwf	i1___ftpack@arg+2,f
  8915  0F96  0874               	movf	i1___ftpack@sign,w
  8916  0F97  1903               	btfsc	3,2
  8917  0F98  0008               	return
  8918  0F99  17F2               	bsf	i1___ftpack@arg+2,7
  8919  0F9A  0008               	return
  8920  0F9B                     __end_ofi1___ftpack:	
  8921                           
  8922                           	psect	text32
  8923  0747                     __ptext32:	
  8924 ;; *************** function ___fttol *****************
  8925 ;; Defined at:
  8926 ;;		line 44 in file "C:\Program Files (x86)\Microchip\xc8\v1.45\sources\common\fttol.c"
  8927 ;; Parameters:    Size  Location     Type
  8928 ;;  f1              3   10[BANK0 ] float 
  8929 ;; Auto vars:     Size  Location     Type
  8930 ;;  lval            4   19[BANK0 ] unsigned long 
  8931 ;;  exp1            1   23[BANK0 ] unsigned char 
  8932 ;;  sign1           1   18[BANK0 ] unsigned char 
  8933 ;; Return value:  Size  Location     Type
  8934 ;;                  4   10[BANK0 ] long 
  8935 ;; Registers used:
  8936 ;;		wreg, status,2, status,0
  8937 ;; Tracked objects:
  8938 ;;		On entry : 0/0
  8939 ;;		On exit  : 0/0
  8940 ;;		Unchanged: 0/0
  8941 ;; Data sizes:     COMMON   BANK0   BANK1   BANK2   BANK3   BANK4   BANK5   BANK6   BANK7   BANK8   BANK9  BANK10  BANK1
      +1  BANK12  BANK13  BANK14  BANK15  BANK16  BANK17  BANK18  BANK19  BANK20  BANK21  BANK22  BANK23  BANK24  BANK25  BANK2
      +6  BANK27  BANK28  BANK29  BANK30  BANK31  BANK32  BANK33  BANK34  BANK35  BANK36  BANK37  BANK38  BANK39  BANK40  BANK4
      +1  BANK42  BANK43  BANK44  BANK45  BANK46  BANK47  BANK48  BANK49  BANK50
  8942 ;;      Params:         0       4       0       0       0       0       0       0       0       0       0       0       
      +0       0       0       0       0       0       0       0       0       0       0       0       0       0       0       
      +0       0       0       0       0       0       0       0       0       0       0       0       0       0       0       
      +0       0       0       0       0       0       0       0       0       0
  8943 ;;      Locals:         0       6       0       0       0       0       0       0       0       0       0       0       
      +0       0       0       0       0       0       0       0       0       0       0       0       0       0       0       
      +0       0       0       0       0       0       0       0       0       0       0       0       0       0       0       
      +0       0       0       0       0       0       0       0       0       0
  8944 ;;      Temps:          0       4       0       0       0       0       0       0       0       0       0       0       
      +0       0       0       0       0       0       0       0       0       0       0       0       0       0       0       
      +0       0       0       0       0       0       0       0       0       0       0       0       0       0       0       
      +0       0       0       0       0       0       0       0       0       0
  8945 ;;      Totals:         0      14       0       0       0       0       0       0       0       0       0       0       
      +0       0       0       0       0       0       0       0       0       0       0       0       0       0       0       
      +0       0       0       0       0       0       0       0       0       0       0       0       0       0       0       
      +0       0       0       0       0       0       0       0       0       0
  8946 ;;Total ram usage:       14 bytes
  8947 ;; Hardware stack levels used:    1
  8948 ;; This function calls:
  8949 ;;		Nothing
  8950 ;; This function is called by:
  8951 ;;		_TMR2_ISR
  8952 ;; This function uses a non-reentrant model
  8953 ;;
  8954                           
  8955                           
  8956                           ;psect for function ___fttol
  8957  0747                     ___fttol:	
  8958                           
  8959                           ;incstack = 0
  8960                           ; Regs used in ___fttol: [wreg+status,2+status,0]
  8961  0747  0140               	movlb	0	; select bank0
  8962  0748  082A               	movf	___fttol@f1,w
  8963  0749  00AE               	movwf	??___fttol
  8964  074A  082B               	movf	___fttol@f1+1,w
  8965  074B  00AF               	movwf	??___fttol+1
  8966  074C  082C               	movf	___fttol@f1+2,w
  8967  074D  00B0               	movwf	??___fttol+2
  8968  074E  1003               	clrc
  8969  074F  0D2F               	rlf	??___fttol+1,w
  8970  0750  0D30               	rlf	??___fttol+2,w
  8971  0751  00B1               	movwf	??___fttol+3
  8972  0752  0831               	movf	??___fttol+3,w
  8973  0753  00B7               	movwf	___fttol@exp1
  8974  0754  0837               	movf	___fttol@exp1,w
  8975  0755  1D03               	btfss	3,2
  8976  0756  2F60               	goto	i1l2155
  8977  0757  3000               	movlw	0
  8978  0758  00AD               	movwf	?___fttol+3
  8979  0759  3000               	movlw	0
  8980  075A  00AC               	movwf	?___fttol+2
  8981  075B  3000               	movlw	0
  8982  075C  00AB               	movwf	?___fttol+1
  8983  075D  3000               	movlw	0
  8984  075E  00AA               	movwf	?___fttol
  8985  075F  0008               	return
  8986  0760                     i1l2155:	
  8987  0760  082A               	movf	___fttol@f1,w
  8988  0761  00AE               	movwf	??___fttol
  8989  0762  082B               	movf	___fttol@f1+1,w
  8990  0763  00AF               	movwf	??___fttol+1
  8991  0764  082C               	movf	___fttol@f1+2,w
  8992  0765  00B0               	movwf	??___fttol+2
  8993  0766  3017               	movlw	23
  8994  0767                     u228_25:	
  8995  0767  36B0               	lsrf	??___fttol+2,f
  8996  0768  0CAF               	rrf	??___fttol+1,f
  8997  0769  0CAE               	rrf	??___fttol,f
  8998  076A  0B89               	decfsz	9,f
  8999  076B  2F67               	goto	u228_25
  9000  076C  082E               	movf	??___fttol,w
  9001  076D  00B1               	movwf	??___fttol+3
  9002  076E  0831               	movf	??___fttol+3,w
  9003  076F  00B2               	movwf	___fttol@sign1
  9004  0770  17AB               	bsf	___fttol@f1+1,7
  9005  0771  30FF               	movlw	255
  9006  0772  05AA               	andwf	___fttol@f1,f
  9007  0773  30FF               	movlw	255
  9008  0774  05AB               	andwf	___fttol@f1+1,f
  9009  0775  3000               	movlw	0
  9010  0776  05AC               	andwf	___fttol@f1+2,f
  9011  0777  082A               	movf	___fttol@f1,w
  9012  0778  00B3               	movwf	___fttol@lval
  9013  0779  082B               	movf	___fttol@f1+1,w
  9014  077A  00B4               	movwf	___fttol@lval+1
  9015  077B  082C               	movf	___fttol@f1+2,w
  9016  077C  00B5               	movwf	___fttol@lval+2
  9017  077D  01B6               	clrf	___fttol@lval+3
  9018  077E  308E               	movlw	142
  9019  077F  02B7               	subwf	___fttol@exp1,f
  9020  0780  1FB7               	btfss	___fttol@exp1,7
  9021  0781  2F9E               	goto	i1l2175
  9022  0782  0837               	movf	___fttol@exp1,w
  9023  0783  3A80               	xorlw	128
  9024  0784  3E8F               	addlw	143
  9025  0785  1803               	skipnc
  9026  0786  2F90               	goto	i1l2173
  9027  0787  3000               	movlw	0
  9028  0788  00AD               	movwf	?___fttol+3
  9029  0789  3000               	movlw	0
  9030  078A  00AC               	movwf	?___fttol+2
  9031  078B  3000               	movlw	0
  9032  078C  00AB               	movwf	?___fttol+1
  9033  078D  3000               	movlw	0
  9034  078E  00AA               	movwf	?___fttol
  9035  078F  0008               	return
  9036  0790                     i1l2173:	
  9037  0790  3001               	movlw	1
  9038  0791                     u231_25:	
  9039  0791  36B6               	lsrf	___fttol@lval+3,f
  9040  0792  0CB5               	rrf	___fttol@lval+2,f
  9041  0793  0CB4               	rrf	___fttol@lval+1,f
  9042  0794  0CB3               	rrf	___fttol@lval,f
  9043  0795  0B89               	decfsz	9,f
  9044  0796  2F91               	goto	u231_25
  9045  0797  3001               	movlw	1
  9046  0798  00AE               	movwf	??___fttol
  9047  0799  082E               	movf	??___fttol,w
  9048  079A  07B7               	addwf	___fttol@exp1,f
  9049  079B  1903               	btfsc	3,2
  9050  079C  2FB7               	goto	i1l2183
  9051  079D  2F90               	goto	i1l2173
  9052  079E                     i1l2175:	
  9053  079E  3018               	movlw	24
  9054  079F  0237               	subwf	___fttol@exp1,w
  9055  07A0  1C03               	skipc
  9056  07A1  2FB4               	goto	i1l841
  9057  07A2  3000               	movlw	0
  9058  07A3  00AD               	movwf	?___fttol+3
  9059  07A4  3000               	movlw	0
  9060  07A5  00AC               	movwf	?___fttol+2
  9061  07A6  3000               	movlw	0
  9062  07A7  00AB               	movwf	?___fttol+1
  9063  07A8  3000               	movlw	0
  9064  07A9  00AA               	movwf	?___fttol
  9065  07AA  0008               	return
  9066  07AB                     i1l2181:	
  9067  07AB  3001               	movlw	1
  9068  07AC                     u234_25:	
  9069  07AC  35B3               	lslf	___fttol@lval,f
  9070  07AD  0DB4               	rlf	___fttol@lval+1,f
  9071  07AE  0DB5               	rlf	___fttol@lval+2,f
  9072  07AF  0DB6               	rlf	___fttol@lval+3,f
  9073  07B0  0B89               	decfsz	9,f
  9074  07B1  2FAC               	goto	u234_25
  9075  07B2  3001               	movlw	1
  9076  07B3  02B7               	subwf	___fttol@exp1,f
  9077  07B4                     i1l841:	
  9078  07B4  0837               	movf	___fttol@exp1,w
  9079  07B5  1D03               	btfss	3,2
  9080  07B6  2FAB               	goto	i1l2181
  9081  07B7                     i1l2183:	
  9082  07B7  0832               	movf	___fttol@sign1,w
  9083  07B8  1903               	btfsc	3,2
  9084  07B9  2FC5               	goto	i1l2187
  9085  07BA  09B3               	comf	___fttol@lval,f
  9086  07BB  09B4               	comf	___fttol@lval+1,f
  9087  07BC  09B5               	comf	___fttol@lval+2,f
  9088  07BD  09B6               	comf	___fttol@lval+3,f
  9089  07BE  0AB3               	incf	___fttol@lval,f
  9090  07BF  1903               	skipnz
  9091  07C0  0AB4               	incf	___fttol@lval+1,f
  9092  07C1  1903               	skipnz
  9093  07C2  0AB5               	incf	___fttol@lval+2,f
  9094  07C3  1903               	skipnz
  9095  07C4  0AB6               	incf	___fttol@lval+3,f
  9096  07C5                     i1l2187:	
  9097  07C5  0836               	movf	___fttol@lval+3,w
  9098  07C6  00AD               	movwf	?___fttol+3
  9099  07C7  0835               	movf	___fttol@lval+2,w
  9100  07C8  00AC               	movwf	?___fttol+2
  9101  07C9  0834               	movf	___fttol@lval+1,w
  9102  07CA  00AB               	movwf	?___fttol+1
  9103  07CB  0833               	movf	___fttol@lval,w
  9104  07CC  00AA               	movwf	?___fttol
  9105  07CD  0008               	return
  9106  07CE                     __end_of___fttol:	
  9107                           
  9108                           	psect	text33
  9109  0D3B                     __ptext33:	
  9110 ;; *************** function _ADCC_ISR *****************
  9111 ;; Defined at:
  9112 ;;		line 299 in file "mcc_generated_files/adcc.c"
  9113 ;; Parameters:    Size  Location     Type
  9114 ;;		None
  9115 ;; Auto vars:     Size  Location     Type
  9116 ;;		None
  9117 ;; Return value:  Size  Location     Type
  9118 ;;                  1    wreg      void 
  9119 ;; Registers used:
  9120 ;;		None
  9121 ;; Tracked objects:
  9122 ;;		On entry : 0/0
  9123 ;;		On exit  : 0/0
  9124 ;;		Unchanged: 0/0
  9125 ;; Data sizes:     COMMON   BANK0   BANK1   BANK2   BANK3   BANK4   BANK5   BANK6   BANK7   BANK8   BANK9  BANK10  BANK1
      +1  BANK12  BANK13  BANK14  BANK15  BANK16  BANK17  BANK18  BANK19  BANK20  BANK21  BANK22  BANK23  BANK24  BANK25  BANK2
      +6  BANK27  BANK28  BANK29  BANK30  BANK31  BANK32  BANK33  BANK34  BANK35  BANK36  BANK37  BANK38  BANK39  BANK40  BANK4
      +1  BANK42  BANK43  BANK44  BANK45  BANK46  BANK47  BANK48  BANK49  BANK50
  9126 ;;      Params:         0       0       0       0       0       0       0       0       0       0       0       0       
      +0       0       0       0       0       0       0       0       0       0       0       0       0       0       0       
      +0       0       0       0       0       0       0       0       0       0       0       0       0       0       0       
      +0       0       0       0       0       0       0       0       0       0
  9127 ;;      Locals:         0       0       0       0       0       0       0       0       0       0       0       0       
      +0       0       0       0       0       0       0       0       0       0       0       0       0       0       0       
      +0       0       0       0       0       0       0       0       0       0       0       0       0       0       0       
      +0       0       0       0       0       0       0       0       0       0
  9128 ;;      Temps:          0       0       0       0       0       0       0       0       0       0       0       0       
      +0       0       0       0       0       0       0       0       0       0       0       0       0       0       0       
      +0       0       0       0       0       0       0       0       0       0       0       0       0       0       0       
      +0       0       0       0       0       0       0       0       0       0
  9129 ;;      Totals:         0       0       0       0       0       0       0       0       0       0       0       0       
      +0       0       0       0       0       0       0       0       0       0       0       0       0       0       0       
      +0       0       0       0       0       0       0       0       0       0       0       0       0       0       0       
      +0       0       0       0       0       0       0       0       0       0
  9130 ;;Total ram usage:        0 bytes
  9131 ;; Hardware stack levels used:    1
  9132 ;; This function calls:
  9133 ;;		Nothing
  9134 ;; This function is called by:
  9135 ;;		_INTERRUPT_InterruptManager
  9136 ;; This function uses a non-reentrant model
  9137 ;;
  9138                           
  9139                           
  9140                           ;psect for function _ADCC_ISR
  9141  0D3B                     _ADCC_ISR:	
  9142                           
  9143                           ;adcc.c: 302: PIR1bits.ADIF = 0;
  9144                           
  9145                           ;incstack = 0
  9146                           ; Regs used in _ADCC_ISR: []
  9147  0D3B  014E               	movlb	14	; select bank14
  9148  0D3C  100D               	bcf	13,0	;volatile
  9149  0D3D  0008               	return
  9150  0D3E                     __end_of_ADCC_ISR:	
  9151  007E                     btemp	set	126	;btemp
  9152  007E                     int$flags	set	126
  9153  007E                     wtemp0	set	126


Data Sizes:
    Strings     45
    Constant    10
    Data        0
    BSS         5
    Persistent  2
    Stack       0

Auto Spaces:
    Space          Size  Autos    Used
    COMMON           14     14      14
    BANK0            80     45      52
    BANK1            80     20      20
    BANK2            80      0       0
    BANK3            80      0       0
    BANK4            80      0       0
    BANK5            80      0       0
    BANK6            80      0       0
    BANK7            80      0       0
    BANK8            80      0       0
    BANK9            80      0       0
    BANK10           80      0       0
    BANK11           80      0       0
    BANK12           80      0       0
    BANK13           80      0       0
    BANK14           80      0       0
    BANK15           80      0       0
    BANK16           80      0       0
    BANK17           80      0       0
    BANK18           80      0       0
    BANK19           80      0       0
    BANK20           80      0       0
    BANK21           80      0       0
    BANK22           80      0       0
    BANK23           80      0       0
    BANK24           80      0       0
    BANK25           80      0       0
    BANK26           80      0       0
    BANK27           80      0       0
    BANK28           80      0       0
    BANK29           80      0       0
    BANK30           80      0       0
    BANK31           80      0       0
    BANK32           80      0       0
    BANK33           80      0       0
    BANK34           80      0       0
    BANK35           80      0       0
    BANK36           80      0       0
    BANK37           80      0       0
    BANK38           80      0       0
    BANK39           80      0       0
    BANK40           80      0       0
    BANK41           80      0       0
    BANK42           80      0       0
    BANK43           80      0       0
    BANK44           80      0       0
    BANK45           80      0       0
    BANK46           80      0       0
    BANK47           80      0       0
    BANK48           80      0       0
    BANK49           80      0       0
    BANK50           80      0       0

Pointer List with Targets:

    printf@f	PTR const unsigned char  size(2) Largest target is 23
		 -> STR_2(CODE[22]), STR_1(CODE[23]), 

    printf@ap	PTR void [1] size(1) Largest target is 2
		 -> ?i1_printf(BANK0[2]), ?_printf(BANK0[2]), 

    TMR2_SetInterruptHandler@InterruptHandler	PTR FTN()void  size(2) Largest target is 1
		 -> TMR2_DefaultInterruptHandler(), 

    TMR2_InterruptHandler	PTR FTN()void  size(2) Largest target is 1
		 -> Absolute function(), TMR2_DefaultInterruptHandler(), 

    ADCC_ADI_InterruptHandler	PTR FTN()void  size(2) Largest target is 1
		 -> Absolute function(), 


Critical Paths under _main in COMMON

    None.

Critical Paths under _INTERRUPT_InterruptManager in COMMON

    _TMR2_ISR->i1___ftadd
    _TMR2_ISR->i1___ftdiv
    i1_printf->i1___lwmod
    i1_putch->i1_EUSART_Write
    i1___lwmod->i1___lwdiv
    i1___ftdiv->i1___ftpack
    i1___ftadd->i1___ftpack
    ___fttol->i1___ftdiv

Critical Paths under _main in BANK0

    _main->___ftadd
    _main->___ftdiv
    _main->___ftmul
    _printf->___lwmod
    _putch->_EUSART_Write
    ___lwmod->___lwdiv
    ___lwtoft->___ftpack
    ___ftmul->___ftpack
    ___ftdiv->___ftpack
    ___ftadd->___ftpack
    _TMR2_Initialize->_TMR2_SetInterruptHandler

Critical Paths under _INTERRUPT_InterruptManager in BANK0

    _INTERRUPT_InterruptManager->_TMR2_ISR
    _TMR2_ISR->___fttol
    ___fttol->i1___ftdiv

Critical Paths under _main in BANK1

    _main->_printf

Critical Paths under _INTERRUPT_InterruptManager in BANK1

    None.

Critical Paths under _main in BANK2

    None.

Critical Paths under _INTERRUPT_InterruptManager in BANK2

    None.

Critical Paths under _main in BANK3

    None.

Critical Paths under _INTERRUPT_InterruptManager in BANK3

    None.

Critical Paths under _main in BANK4

    None.

Critical Paths under _INTERRUPT_InterruptManager in BANK4

    None.

Critical Paths under _main in BANK5

    None.

Critical Paths under _INTERRUPT_InterruptManager in BANK5

    None.

Critical Paths under _main in BANK6

    None.

Critical Paths under _INTERRUPT_InterruptManager in BANK6

    None.

Critical Paths under _main in BANK7

    None.

Critical Paths under _INTERRUPT_InterruptManager in BANK7

    None.

Critical Paths under _main in BANK8

    None.

Critical Paths under _INTERRUPT_InterruptManager in BANK8

    None.

Critical Paths under _main in BANK9

    None.

Critical Paths under _INTERRUPT_InterruptManager in BANK9

    None.

Critical Paths under _main in BANK10

    None.

Critical Paths under _INTERRUPT_InterruptManager in BANK10

    None.

Critical Paths under _main in BANK11

    None.

Critical Paths under _INTERRUPT_InterruptManager in BANK11

    None.

Critical Paths under _main in BANK12

    None.

Critical Paths under _INTERRUPT_InterruptManager in BANK12

    None.

Critical Paths under _main in BANK13

    None.

Critical Paths under _INTERRUPT_InterruptManager in BANK13

    None.

Critical Paths under _main in BANK14

    None.

Critical Paths under _INTERRUPT_InterruptManager in BANK14

    None.

Critical Paths under _main in BANK15

    None.

Critical Paths under _INTERRUPT_InterruptManager in BANK15

    None.

Critical Paths under _main in BANK16

    None.

Critical Paths under _INTERRUPT_InterruptManager in BANK16

    None.

Critical Paths under _main in BANK17

    None.

Critical Paths under _INTERRUPT_InterruptManager in BANK17

    None.

Critical Paths under _main in BANK18

    None.

Critical Paths under _INTERRUPT_InterruptManager in BANK18

    None.

Critical Paths under _main in BANK19

    None.

Critical Paths under _INTERRUPT_InterruptManager in BANK19

    None.

Critical Paths under _main in BANK20

    None.

Critical Paths under _INTERRUPT_InterruptManager in BANK20

    None.

Critical Paths under _main in BANK21

    None.

Critical Paths under _INTERRUPT_InterruptManager in BANK21

    None.

Critical Paths under _main in BANK22

    None.

Critical Paths under _INTERRUPT_InterruptManager in BANK22

    None.

Critical Paths under _main in BANK23

    None.

Critical Paths under _INTERRUPT_InterruptManager in BANK23

    None.

Critical Paths under _main in BANK24

    None.

Critical Paths under _INTERRUPT_InterruptManager in BANK24

    None.

Critical Paths under _main in BANK25

    None.

Critical Paths under _INTERRUPT_InterruptManager in BANK25

    None.

Critical Paths under _main in BANK26

    None.

Critical Paths under _INTERRUPT_InterruptManager in BANK26

    None.

Critical Paths under _main in BANK27

    None.

Critical Paths under _INTERRUPT_InterruptManager in BANK27

    None.

Critical Paths under _main in BANK28

    None.

Critical Paths under _INTERRUPT_InterruptManager in BANK28

    None.

Critical Paths under _main in BANK29

    None.

Critical Paths under _INTERRUPT_InterruptManager in BANK29

    None.

Critical Paths under _main in BANK30

    None.

Critical Paths under _INTERRUPT_InterruptManager in BANK30

    None.

Critical Paths under _main in BANK31

    None.

Critical Paths under _INTERRUPT_InterruptManager in BANK31

    None.

Critical Paths under _main in BANK32

    None.

Critical Paths under _INTERRUPT_InterruptManager in BANK32

    None.

Critical Paths under _main in BANK33

    None.

Critical Paths under _INTERRUPT_InterruptManager in BANK33

    None.

Critical Paths under _main in BANK34

    None.

Critical Paths under _INTERRUPT_InterruptManager in BANK34

    None.

Critical Paths under _main in BANK35

    None.

Critical Paths under _INTERRUPT_InterruptManager in BANK35

    None.

Critical Paths under _main in BANK36

    None.

Critical Paths under _INTERRUPT_InterruptManager in BANK36

    None.

Critical Paths under _main in BANK37

    None.

Critical Paths under _INTERRUPT_InterruptManager in BANK37

    None.

Critical Paths under _main in BANK38

    None.

Critical Paths under _INTERRUPT_InterruptManager in BANK38

    None.

Critical Paths under _main in BANK39

    None.

Critical Paths under _INTERRUPT_InterruptManager in BANK39

    None.

Critical Paths under _main in BANK40

    None.

Critical Paths under _INTERRUPT_InterruptManager in BANK40

    None.

Critical Paths under _main in BANK41

    None.

Critical Paths under _INTERRUPT_InterruptManager in BANK41

    None.

Critical Paths under _main in BANK42

    None.

Critical Paths under _INTERRUPT_InterruptManager in BANK42

    None.

Critical Paths under _main in BANK43

    None.

Critical Paths under _INTERRUPT_InterruptManager in BANK43

    None.

Critical Paths under _main in BANK44

    None.

Critical Paths under _INTERRUPT_InterruptManager in BANK44

    None.

Critical Paths under _main in BANK45

    None.

Critical Paths under _INTERRUPT_InterruptManager in BANK45

    None.

Critical Paths under _main in BANK46

    None.

Critical Paths under _INTERRUPT_InterruptManager in BANK46

    None.

Critical Paths under _main in BANK47

    None.

Critical Paths under _INTERRUPT_InterruptManager in BANK47

    None.

Critical Paths under _main in BANK48

    None.

Critical Paths under _INTERRUPT_InterruptManager in BANK48

    None.

Critical Paths under _main in BANK49

    None.

Critical Paths under _INTERRUPT_InterruptManager in BANK49

    None.

Critical Paths under _main in BANK50

    None.

Critical Paths under _INTERRUPT_InterruptManager in BANK50

    None.

Call Graph Tables:

 ---------------------------------------------------------------------------------
 (Depth) Function   	        Calls       Base Space   Used Autos Params    Refs
 ---------------------------------------------------------------------------------
 (0) _main                                                10    10      0   15347
                                             10 BANK1     10    10      0
           _ADCC_GetConversionResult
               _ADCC_StartConversion
                  _SYSTEM_Initialize
                            ___ftadd
                            ___ftdiv
                             ___ftge
                            ___ftmul
                           ___lwtoft
                             _printf
 ---------------------------------------------------------------------------------
 (1) _printf                                              20    18      2    1525
                                             41 BANK0      2     0      2
                                              0 BANK1     10    10      0
                            ___lwdiv
                            ___lwmod
                              _putch
 ---------------------------------------------------------------------------------
 (2) _putch                                                1     1      0      62
                                             28 BANK0      1     1      0
                       _EUSART_Write
 ---------------------------------------------------------------------------------
 (3) _EUSART_Write                                         1     1      0      31
                                             27 BANK0      1     1      0
 ---------------------------------------------------------------------------------
 (2) ___lwmod                                              6     2      4     386
                                             35 BANK0      6     2      4
                            ___lwdiv (ARG)
 ---------------------------------------------------------------------------------
 (2) ___lwdiv                                              8     4      4     395
                                             27 BANK0      8     4      4
 ---------------------------------------------------------------------------------
 (1) ___lwtoft                                             4     1      3    2572
                                             35 BANK0      4     1      3
           _ADCC_GetConversionResult (ARG)
                           ___ftpack
 ---------------------------------------------------------------------------------
 (1) ___ftmul                                             16    10      6    3106
                                             35 BANK0     10     4      6
                                              0 BANK1      6     6      0
                           ___ftpack
 ---------------------------------------------------------------------------------
 (1) ___ftge                                               9     3      6     520
                                             27 BANK0      9     3      6
 ---------------------------------------------------------------------------------
 (1) ___ftdiv                                             16    10      6    3122
                                             35 BANK0     10     4      6
                                              0 BANK1      6     6      0
                           ___ftpack
 ---------------------------------------------------------------------------------
 (1) ___ftadd                                             13     7      6    4195
                                             35 BANK0     10     4      6
                                              0 BANK1      3     3      0
                           ___ftpack
 ---------------------------------------------------------------------------------
 (2) ___ftpack                                             8     3      5    2464
                                             27 BANK0      8     3      5
 ---------------------------------------------------------------------------------
 (1) _SYSTEM_Initialize                                    0     0      0     109
                    _ADCC_Initialize
                  _EUSART_Initialize
              _OSCILLATOR_Initialize
             _PIN_MANAGER_Initialize
                    _TMR2_Initialize
 ---------------------------------------------------------------------------------
 (2) _TMR2_Initialize                                      0     0      0      86
           _TMR2_SetInterruptHandler
                         _TMR2_Start
 ---------------------------------------------------------------------------------
 (3) _TMR2_Start                                           0     0      0       0
 ---------------------------------------------------------------------------------
 (3) _TMR2_SetInterruptHandler                             2     0      2      86
                                             27 BANK0      2     0      2
 ---------------------------------------------------------------------------------
 (2) _PIN_MANAGER_Initialize                               1     1      0      23
                                             27 BANK0      1     1      0
 ---------------------------------------------------------------------------------
 (2) _OSCILLATOR_Initialize                                0     0      0       0
 ---------------------------------------------------------------------------------
 (2) _EUSART_Initialize                                    0     0      0       0
 ---------------------------------------------------------------------------------
 (2) _ADCC_Initialize                                      0     0      0       0
 ---------------------------------------------------------------------------------
 (1) _ADCC_StartConversion                                 1     1      0      22
                                             27 BANK0      1     1      0
 ---------------------------------------------------------------------------------
 (1) _ADCC_GetConversionResult                             2     0      2       0
                                             27 BANK0      2     0      2
 ---------------------------------------------------------------------------------
 Estimated maximum stack depth 3
 ---------------------------------------------------------------------------------
 (Depth) Function   	        Calls       Base Space   Used Autos Params    Refs
 ---------------------------------------------------------------------------------
 (4) _INTERRUPT_InterruptManager                           1     1      0    3218
                                             26 BANK0      1     1      0
                           _ADCC_ISR
                           _TMR2_ISR
 ---------------------------------------------------------------------------------
 (5) _TMR2_ISR                                             2     2      0    3218
                                             24 BANK0      2     2      0
                            ___fttol
                          i1___ftadd
                          i1___ftdiv
                           i1_printf
 ---------------------------------------------------------------------------------
 (6) i1_printf                                            22    18      4     881
                                              0 BANK0     14    10      4
                          i1___lwdiv
                          i1___lwmod
                            i1_putch
 ---------------------------------------------------------------------------------
 (7) i1_putch                                              1     1      0      44
                                              1 COMMON     1     1      0
                     i1_EUSART_Write
 ---------------------------------------------------------------------------------
 (8) i1_EUSART_Write                                       1     1      0      22
                                              0 COMMON     1     1      0
 ---------------------------------------------------------------------------------
 (7) i1___lwmod                                            6     2      4     211
                                              8 COMMON     6     2      4
                          i1___lwdiv (ARG)
 ---------------------------------------------------------------------------------
 (7) i1___lwdiv                                            8     4      4     214
                                              0 COMMON     8     4      4
 ---------------------------------------------------------------------------------
 (6) i1___ftdiv                                           16    10      6     719
                                              8 COMMON     6     0      6
                                              0 BANK0     10    10      0
                         i1___ftpack
 ---------------------------------------------------------------------------------
 (6) i1___ftadd                                           13     7      6    1279
                                              8 COMMON     6     0      6
                                              0 BANK0      7     7      0
                         i1___ftpack
 ---------------------------------------------------------------------------------
 (7) i1___ftpack                                           8     3      5     387
                                              0 COMMON     8     3      5
 ---------------------------------------------------------------------------------
 (6) ___fttol                                             14    10      4     316
                                             10 BANK0     14    10      4
                          i1___ftdiv (ARG)
 ---------------------------------------------------------------------------------
 (5) _ADCC_ISR                                             0     0      0       0
 ---------------------------------------------------------------------------------
 Estimated maximum stack depth 8
 ---------------------------------------------------------------------------------

 Call Graph Graphs:

 _main (ROOT)
   _ADCC_GetConversionResult
   _ADCC_StartConversion
   _SYSTEM_Initialize
     _ADCC_Initialize
     _EUSART_Initialize
     _OSCILLATOR_Initialize
     _PIN_MANAGER_Initialize
     _TMR2_Initialize
       _TMR2_SetInterruptHandler
       _TMR2_Start
   ___ftadd
     ___ftpack
   ___ftdiv
     ___ftpack
   ___ftge
   ___ftmul
     ___ftpack
   ___lwtoft
     _ADCC_GetConversionResult (ARG)
     ___ftpack (ARG)
   _printf
     ___lwdiv
     ___lwmod
       ___lwdiv (ARG)
     _putch
       _EUSART_Write

 _INTERRUPT_InterruptManager (ROOT)
   _ADCC_ISR
   _TMR2_ISR
     ___fttol
       i1___ftdiv (ARG)
         i1___ftpack
     i1___ftadd
       i1___ftpack
     i1___ftdiv
       i1___ftpack
     i1_printf
       i1___lwdiv
       i1___lwmod
         i1___lwdiv (ARG)
       i1_putch
         i1_EUSART_Write

 Address spaces:
Name               Size   Autos  Total    Cost      Usage
BIGRAM             FF0      0       0       0        0.0%
EEDATA             100      0       0       0        0.0%
NULL                 0      0       0       0        0.0%
CODE                 0      0       0       0        0.0%
BITCOMMON            E      0       0       1        0.0%
BITSFR0              0      0       0       1        0.0%
SFR0                 0      0       0       1        0.0%
COMMON               E      E       E       2      100.0%
BITSFR1              0      0       0       2        0.0%
SFR1                 0      0       0       2        0.0%
BITSFR2              0      0       0       3        0.0%
SFR2                 0      0       0       3        0.0%
STACK                0      0       0       3        0.0%
BITBANK0            50      0       0       4        0.0%
BITSFR3              0      0       0       4        0.0%
SFR3                 0      0       0       4        0.0%
BANK0               50     2D      34       5       65.0%
BITSFR4              0      0       0       5        0.0%
SFR4                 0      0       0       5        0.0%
BITBANK1            50      0       0       6        0.0%
BITSFR5              0      0       0       6        0.0%
SFR5                 0      0       0       6        0.0%
BANK1               50     14      14       7       25.0%
BITSFR6              0      0       0       7        0.0%
SFR6                 0      0       0       7        0.0%
BITBANK2            50      0       0       8        0.0%
BITSFR7              0      0       0       8        0.0%
SFR7                 0      0       0       8        0.0%
BANK2               50      0       0       9        0.0%
BITSFR8              0      0       0       9        0.0%
SFR8                 0      0       0       9        0.0%
BITBANK3            50      0       0      10        0.0%
BITSFR9              0      0       0      10        0.0%
SFR9                 0      0       0      10        0.0%
BANK3               50      0       0      11        0.0%
BITSFR10             0      0       0      11        0.0%
SFR10                0      0       0      11        0.0%
BITBANK4            50      0       0      12        0.0%
BITSFR11             0      0       0      12        0.0%
SFR11                0      0       0      12        0.0%
BANK4               50      0       0      13        0.0%
BITSFR12             0      0       0      13        0.0%
SFR12                0      0       0      13        0.0%
BITBANK5            50      0       0      14        0.0%
BITSFR13             0      0       0      14        0.0%
SFR13                0      0       0      14        0.0%
BANK5               50      0       0      15        0.0%
BITSFR14             0      0       0      15        0.0%
SFR14                0      0       0      15        0.0%
BITBANK6            50      0       0      16        0.0%
BITSFR15             0      0       0      16        0.0%
SFR15                0      0       0      16        0.0%
BANK6               50      0       0      17        0.0%
BITSFR16             0      0       0      17        0.0%
SFR16                0      0       0      17        0.0%
BITBANK7            50      0       0      18        0.0%
BITSFR17             0      0       0      18        0.0%
SFR17                0      0       0      18        0.0%
BANK7               50      0       0      19        0.0%
BITSFR18             0      0       0      19        0.0%
SFR18                0      0       0      19        0.0%
BITBANK8            50      0       0      20        0.0%
BITSFR19             0      0       0      20        0.0%
SFR19                0      0       0      20        0.0%
BANK8               50      0       0      21        0.0%
BITSFR20             0      0       0      21        0.0%
SFR20                0      0       0      21        0.0%
BITBANK9            50      0       0      22        0.0%
BITSFR21             0      0       0      22        0.0%
SFR21                0      0       0      22        0.0%
BANK9               50      0       0      23        0.0%
BITSFR22             0      0       0      23        0.0%
SFR22                0      0       0      23        0.0%
BITBANK10           50      0       0      24        0.0%
BITSFR23             0      0       0      24        0.0%
SFR23                0      0       0      24        0.0%
BANK10              50      0       0      25        0.0%
BITSFR24             0      0       0      25        0.0%
SFR24                0      0       0      25        0.0%
BITBANK11           50      0       0      26        0.0%
BITSFR25             0      0       0      26        0.0%
SFR25                0      0       0      26        0.0%
BANK11              50      0       0      27        0.0%
BITSFR26             0      0       0      27        0.0%
SFR26                0      0       0      27        0.0%
BITSFR27             0      0       0      28        0.0%
SFR27                0      0       0      28        0.0%
ABS                  0      0      56      28        0.0%
BITBANK12           50      0       0      29        0.0%
BITSFR28             0      0       0      29        0.0%
SFR28                0      0       0      29        0.0%
BANK12              50      0       0      30        0.0%
BITSFR29             0      0       0      30        0.0%
SFR29                0      0       0      30        0.0%
BITBANK13           50      0       0      31        0.0%
BITSFR30             0      0       0      31        0.0%
SFR30                0      0       0      31        0.0%
BANK13              50      0       0      32        0.0%
BITSFR31             0      0       0      32        0.0%
SFR31                0      0       0      32        0.0%
BITBANK14           50      0       0      33        0.0%
BITSFR32             0      0       0      33        0.0%
SFR32                0      0       0      33        0.0%
BANK14              50      0       0      34        0.0%
BITSFR33             0      0       0      34        0.0%
SFR33                0      0       0      34        0.0%
BITBANK15           50      0       0      35        0.0%
BITSFR34             0      0       0      35        0.0%
SFR34                0      0       0      35        0.0%
BANK15              50      0       0      36        0.0%
BITSFR35             0      0       0      36        0.0%
SFR35                0      0       0      36        0.0%
BITBANK16           50      0       0      37        0.0%
BITSFR36             0      0       0      37        0.0%
SFR36                0      0       0      37        0.0%
BANK16              50      0       0      38        0.0%
BITSFR37             0      0       0      38        0.0%
SFR37                0      0       0      38        0.0%
BITBANK17           50      0       0      39        0.0%
BITSFR38             0      0       0      39        0.0%
SFR38                0      0       0      39        0.0%
BANK17              50      0       0      40        0.0%
BITSFR39             0      0       0      40        0.0%
SFR39                0      0       0      40        0.0%
BITBANK18           50      0       0      41        0.0%
BITSFR40             0      0       0      41        0.0%
SFR40                0      0       0      41        0.0%
BANK18              50      0       0      42        0.0%
BITSFR41             0      0       0      42        0.0%
SFR41                0      0       0      42        0.0%
BITBANK19           50      0       0      43        0.0%
BITSFR42             0      0       0      43        0.0%
SFR42                0      0       0      43        0.0%
BANK19              50      0       0      44        0.0%
BITSFR43             0      0       0      44        0.0%
SFR43                0      0       0      44        0.0%
BITBANK20           50      0       0      45        0.0%
BITSFR44             0      0       0      45        0.0%
SFR44                0      0       0      45        0.0%
BANK20              50      0       0      46        0.0%
BITSFR45             0      0       0      46        0.0%
SFR45                0      0       0      46        0.0%
BITBANK21           50      0       0      47        0.0%
BITSFR46             0      0       0      47        0.0%
SFR46                0      0       0      47        0.0%
BANK21              50      0       0      48        0.0%
BITSFR47             0      0       0      48        0.0%
SFR47                0      0       0      48        0.0%
BITBANK22           50      0       0      49        0.0%
BITSFR48             0      0       0      49        0.0%
SFR48                0      0       0      49        0.0%
BANK22              50      0       0      50        0.0%
BITSFR49             0      0       0      50        0.0%
SFR49                0      0       0      50        0.0%
BITBANK23           50      0       0      51        0.0%
BITSFR50             0      0       0      51        0.0%
SFR50                0      0       0      51        0.0%
BANK23              50      0       0      52        0.0%
BITSFR51             0      0       0      52        0.0%
SFR51                0      0       0      52        0.0%
BITBANK24           50      0       0      53        0.0%
BITSFR52             0      0       0      53        0.0%
SFR52                0      0       0      53        0.0%
BANK24              50      0       0      54        0.0%
BITSFR53             0      0       0      54        0.0%
SFR53                0      0       0      54        0.0%
BITBANK25           50      0       0      55        0.0%
BITSFR54             0      0       0      55        0.0%
SFR54                0      0       0      55        0.0%
BANK25              50      0       0      56        0.0%
BITSFR55             0      0       0      56        0.0%
SFR55                0      0       0      56        0.0%
BITBANK26           50      0       0      57        0.0%
BITSFR56             0      0       0      57        0.0%
SFR56                0      0       0      57        0.0%
BANK26              50      0       0      58        0.0%
BITSFR57             0      0       0      58        0.0%
SFR57                0      0       0      58        0.0%
BITSFR58             0      0       0      59        0.0%
SFR58                0      0       0      59        0.0%
DATA                 0      0      56      59        0.0%
BITBANK27           50      0       0      60        0.0%
BITSFR59             0      0       0      60        0.0%
SFR59                0      0       0      60        0.0%
BANK27              50      0       0      61        0.0%
BITSFR60             0      0       0      61        0.0%
SFR60                0      0       0      61        0.0%
BITBANK28           50      0       0      62        0.0%
BITSFR61             0      0       0      62        0.0%
SFR61                0      0       0      62        0.0%
BANK28              50      0       0      63        0.0%
BITSFR62             0      0       0      63        0.0%
SFR62                0      0       0      63        0.0%
BITBANK29           50      0       0      64        0.0%
BITSFR63             0      0       0      64        0.0%
SFR63                0      0       0      64        0.0%
BANK29              50      0       0      65        0.0%
BITBANK30           50      0       0      66        0.0%
BANK30              50      0       0      67        0.0%
BITBANK31           50      0       0      68        0.0%
BANK31              50      0       0      69        0.0%
BITBANK32           50      0       0      70        0.0%
BANK32              50      0       0      71        0.0%
BITBANK33           50      0       0      72        0.0%
BANK33              50      0       0      73        0.0%
BITBANK34           50      0       0      74        0.0%
BANK34              50      0       0      75        0.0%
BITBANK35           50      0       0      76        0.0%
BANK35              50      0       0      77        0.0%
BITBANK36           50      0       0      78        0.0%
BANK36              50      0       0      79        0.0%
BITBANK37           50      0       0      80        0.0%
BANK37              50      0       0      81        0.0%
BITBANK38           50      0       0      82        0.0%
BANK38              50      0       0      83        0.0%
BITBANK39           50      0       0      84        0.0%
BANK39              50      0       0      85        0.0%
BITBANK40           50      0       0      86        0.0%
BANK40              50      0       0      87        0.0%
BITBANK41           50      0       0      88        0.0%
BANK41              50      0       0      89        0.0%
BITBANK42           50      0       0      90        0.0%
BANK42              50      0       0      91        0.0%
BITBANK43           50      0       0      92        0.0%
BANK43              50      0       0      93        0.0%
BITBANK44           50      0       0      94        0.0%
BANK44              50      0       0      95        0.0%
BITBANK45           50      0       0      96        0.0%
BANK45              50      0       0      97        0.0%
BITBANK46           50      0       0      98        0.0%
BANK46              50      0       0      99        0.0%
BITBANK47           50      0       0     100        0.0%
BANK47              50      0       0     101        0.0%
BITBANK48           50      0       0     102        0.0%
BANK48              50      0       0     103        0.0%
BITBANK49           50      0       0     104        0.0%
BANK49              50      0       0     105        0.0%
BITBANK50           50      0       0     106        0.0%
BANK50              50      0       0     107        0.0%


Microchip Technology PIC Macro Assembler V1.45 build -152302408 
Symbol Table                                                                                   Sun May 13 20:38:16 2018

                        ??i1_EUSART_Write 0070          __end_of_TMR2_SetInterruptHandler 0D47  
                              i1___ftpack 0F37                               __CFG_CP$OFF 0000  
                            ___ftadd@exp1 00A2                              ___ftadd@exp2 00A1  
                             __CFG_LVP$ON 0000                              ___ftadd@sign 00A0  
                                     l507 0521                                       l470 0154  
                                     l456 011A                                       l395 0D71  
                                     l750 0FCE                                       l771 01B7  
                                     l772 01BC                                       l757 0FE1  
                                     l781 021F                                       l758 0FE9  
                            i1___ftadd@f1 0078                              i1___ftadd@f2 007B  
                                     _GIE 005F                                       _PR2 028D  
                            __CFG_CPD$OFF 0000                                       _ido 004F  
                            i1___ftdiv@f1 007B                              i1___ftdiv@f2 0078  
                            i1___ftdiv@f3 0025                           _TMR2_Initialize 0DA8  
                            __CFG_BORV$LO 0000                                       wreg 0009  
                            __CFG_ZCD$OFF 0000                              ___ftdiv@cntr 00A0  
                            ___ftdiv@sign 00A5                                      l3013 03A8  
                                    l3007 038F                                      l3041 0424  
                                    l3025 03F0                                      l3121 0121  
                                    l3115 0115                                      l3037 0416  
                                    l3029 03FE                                      l3065 0057  
                                    l3091 0099                                      l3083 007D  
                                    l3059 0036                                      l3069 006E  
                                    l3087 0092                                      l2811 0E64  
                                    l2803 0E46                                      l3099 00EC  
                                    l2805 0E52                      _ADCC_StartConversion 0D55  
                                    l2815 0E6D                                      l2905 01AC  
                                    l2585 0EC4                                      l2833 07ED  
                                    l2771 0FB5                                      l2923 01E5  
                                    l2827 07D5                                      l2781 0FDB  
                                    l2773 0FBA                                      l2765 0FA4  
                                    l2941 0232                                      l2925 01F1  
                                    l2917 01D0                                      l2589 0EDA  
                                    l2829 07E1                                      l2837 07F6  
                                    l2853 049C                                      l2935 020F  
                                    l2927 01F6                                      l2863 04B2  
                                    l2847 047D                                      l2769 0FAB  
                                    l2945 0246                                      l2937 021B  
                                    l2929 01FA                                      l2779 0FD3  
                                    l2955 0264                                      l2971 0554  
                                    l2875 04D7                                      l2965 053B  
                                    l2885 04E4                                      l2869 04B8  
                                    l2895 0193                                      l2879 04DF  
                                    l2887 045C                                      l2993 05BB  
                                    l2985 05A0                                      l2899 019B  
                                    STR_1 1000                                      STR_2 1017  
                                    u2130 0EAB                                      _LATA 0016  
                                    _LATB 0017                                      _LATC 0018  
                                    _T2PR 028D                                      u4115 01D1  
                                    u4205 0210                                      u4145 01E6  
                                    u4305 05B1                                      u4315 05BC  
                                    u4175 01FB                                      u4425 0425  
                                    u3715 0FB0                                      u4275 056A  
                                    u4435 042C                                      u4355 03B8  
                                    u4285 057C                                      u4365 03CA  
                                    u3735 0FC9                                      u4295 05A1  
                                    u4385 03FF                                      u3825 0E49  
                                    u4617 015D                                      u3755 0FD6  
                                    u4395 0406                                      u3915 07E7  
                                    u3845 0E53                                      u3925 07EE  
                                    u3855 0E5D                                      u3865 0E65  
                                    u3795 0FF0                                      u3895 07D8  
                                    u3975 04CD                                      i1l99 0013  
                                    _TMR2 028C                                      _WPUA 1F39  
                                    _WPUB 1F44                                      _WPUC 1F4F  
                        __end_of_ADCC_ISR 0D3E                              __CFG_WRT$OFF 0000  
                           __CFG_FCMEN$ON 0000                                      _main 002C  
                            ___ftpack@arg 003B                              ___ftpack@exp 003E  
                                    fsr0h 0005                                      fsr1h 0007  
                                    indf0 0000                                      fsr0l 0004  
                                    fsr1l 0006                                      btemp 007E  
                           __CFG_BOREN$ON 0000                             i1___ftdiv@exp 0028  
                                    start 0020                           __end_ofi1_putch 0800  
                           __CFG_CSWEN$ON 0000                             __CFG_MCLRE$ON 0000  
                            ___ftmul@cntr 00A4                              ___ftmul@sign 00A5  
                            ___fttol@exp1 0037                              ___fttol@lval 0033  
                           ?_EUSART_Write 0070            __size_of_OSCILLATOR_Initialize 0009  
           __end_of_OSCILLATOR_Initialize 0D6F                                     _ADACQ 009D  
                                   _ADACT 0099                                     _ADCAP 009B  
                                   ?_main 0070                                     _ADCLK 0098  
                                   _ADCNT 010C                                     _ADPCH 009E  
                                   _ADREF 009A                                     _ADPRE 009C  
                         __end_of___ftadd 0281                             __CFG_WDTE$OFF 0000  
                                   _ADRPT 010D                           __end_of___ftdiv 05E8  
                         __end_of___ftmul 0457                           __end_of___fttol 07CE  
                                   _T2CON 028E                                     _T2HLT 028F  
                          __CFG_DEBUG$OFF 0000                           __end_of___lwdiv 0E72  
                                   i1l103 001B                                     _T2TMR 028C  
                                   _T2RST 0291                           __end_of___lwmod 07FB  
                                   i1l507 069E                                     i1l395 0D4E  
                                   i1l750 0F69                                     i1l841 07B4  
                                   i1l757 0F7C                                     i1l781 0320  
                                   i1l758 0F84                                     _OSCEN 0891  
                          i1___ftadd@exp1 0026                            i1___ftadd@exp2 0025  
                                   _TRISA 0011                                     _TRISB 0012  
                                   _TRISC 0013                            i1___ftadd@sign 0024  
                        __end_of_TMR2_ISR 0F37                        i1___lwmod@dividend 007A  
                         __end_of_dpowers 1037                               ?_TMR2_Start 0070  
                   ?_ADCC_StartConversion 0070                             ___ftpack@sign 003F  
                                   _putch 0D47                             i1putch@txData 0071  
                          i1___ftdiv@cntr 0024                            i1___ftdiv@sign 0029  
                                   status 0003                                     wtemp0 007E  
                      __size_ofi1___ftadd 00F5                        __size_ofi1___ftdiv 00A8  
                      __size_ofi1___lwdiv 0034                        __size_ofi1___lwmod 002C  
                        __end_ofi1_printf 069F                            i1___ftpack@arg 0070  
                          i1___ftpack@exp 0073                                i1printf@ap 0028  
                         __initialization 0022                              __end_of_main 0167  
                             ?i1___ftpack 0070                            ??_EUSART_Write 003B  
                 __end_of_TMR2_Initialize 0DC0               ?_INTERRUPT_InterruptManager 0070  
                _TMR2_SetInterruptHandler 0D41                                    ??_main 00AA  
                           ___fttol@sign1 0032                                    _ADACCH 0091  
                                  _ADACCL 0090                                    _ADCON0 0093  
                                  _ADCON1 0094                                    _ADCON2 0095  
                                  _ADCON3 0096                                    _ADERRH 0117  
                                  _ADERRL 0116                                    _ADLTHH 010F  
                                  _ADLTHL 010E                                    _ADRESH 008D  
                                  _ADRESL 008C                                    _ADSTAT 0097  
                                  _ADUTHH 0111                                    _ADUTHL 0110  
                                  _ANSELA 1F38                                    ?_putch 0070  
                                  _ANSELB 1F43                                    _ANSELC 1F4E  
                        __end_of___ftpack 1000                        __CFG_RSTOSC$HFINT1 0000  
                                  _RC1REG 0119                                    _RC0PPS 1F20  
                                  _RC1STA 011D                                    i1l2011 0DE3  
                                  i1l2013 0DEF                                    i1l2021 0E04  
                                  i1l2017 0DFB                                    i1l2303 02BF  
                                  i1l2321 02EC                                    _ODCONA 1F3A  
                                  _ODCONB 1F45                                    i1l2155 0760  
                                  i1l2323 02F6                                    i1l2315 02D9  
                                  i1l2251 0622                                    _ODCONC 1F50  
                                  i1l2181 07AB                                    i1l2173 0790  
                                  i1l2333 0312                                    i1l2325 02FB  
                                  i1l2261 0638                                    i1l2245 0609  
                                  i1l2405 0EF6                                    i1l2183 07B7  
                                  i1l2175 079E                                    i1l2343 0344  
                                  i1l2335 031C                                    i1l2327 02FF  
                                  i1l2353 035F                                    i1l2273 065D  
                                  i1l2187 07C5                                    i1l2339 0332  
                                  i1l2363 06B6                                    i1l2283 066A  
                                  i1l2267 063E                                    i1l2293 02A9  
                                  u201_25 0E14                                    i1l2277 0665  
                                  i1l2285 05ED                                    i1l2391 0726  
                                  i1l2383 070D                                    i1l2297 02B0  
                                  i1l2369 06CC                                    u210_25 0DF5  
                                  i1l1953 0F46                                    i1l1963 0F6E  
                                  i1l1955 0F50                                    i1l1965 0F76  
                                  i1l1957 0F55                                    i1l1949 0F3F  
                                  u203_25 0E1E                                    u211_25 0DFC  
                          __CFG_WDTCCS$SC 0000                                    i1l1995 0E2F  
                                  i1l1987 0E11                                    u204_25 0E28  
                                  i1l1989 0E1D                                    i1l1999 0E38  
                                  u205_25 0E30                                    u231_25 0791  
                                  u208_25 0DE6                                    u234_25 07AC  
                                  u228_25 0767                                    u253_25 0653  
                                  u190_25 0F4B                                    u270_25 02ED  
                                  u192_25 0F64                                    u273_25 0300  
                        __end_of___lwtoft 0DA8                                    u194_25 0F71  
                                  u267_25 02DA                                    u283_25 06DE  
                                  u276_25 0313                                    u284_25 06EE  
                                  u285_25 070E                                    u198_25 0F8B  
                                  u286_25 071D                                    u287_25 0727  
                                  u289_20 0EF4                                    _OSCFRQ 0893  
                               ??i1_putch 0071                                    _TX1REG 011A  
                                  _TX1STA 011E                ??_ADCC_GetConversionResult 003D  
                          __CFG_PWRTE$OFF 0000                                    ___ftge 0EAD  
                               ??___ftadd 0049                            __CFG_STVREN$ON 0000  
                               ??___ftdiv 0049                                 ??___ftmul 0049  
                               ??___fttol 002E                                 ??___lwdiv 003F  
                               ??___lwmod 0047                       __size_of_TMR2_Start 0003  
                                  _printf 0457                                 ?_ADCC_ISR 0070  
                   ___ftmul@f3_as_product 00A1                         __end_ofi1___ftadd 0376  
                         _ADCC_Initialize 0DC0                         __end_ofi1___ftdiv 0747  
                       __end_ofi1___lwdiv 0E3D                         __end_ofi1___lwmod 0E09  
                  ??_ADCC_StartConversion 003B  TMR2_SetInterruptHandler@InterruptHandler 003B  
                     __size_ofi1___ftpack 0064                         _SYSTEM_Initialize 0D84  
                 __end_of__initialization 0028                                ___ftadd@f1 0043  
                              ___ftadd@f2 0046                                ___ftge@ff1 003B  
                              ___ftge@ff2 003E                           i1___ftpack@sign 0074  
                      ?_SYSTEM_Initialize 0070                                ___ftdiv@f1 0046  
                              ___ftdiv@f2 0043                                ___ftdiv@f3 00A1  
                             i1printf@val 002B                                ___ftmul@f1 0043  
                              ___ftmul@f2 0046                                ___fttol@f1 002A  
                          __pcstackCOMMON 0070                       ??_SYSTEM_Initialize 003D  
                               ?_TMR2_ISR 0070                             __end_of_putch 0D4D  
                        ?_TMR2_Initialize 0070                                ___lwtoft@c 0043  
                              ??_ADCC_ISR 0070                                 ?i1_printf 0020  
             ADCC_StartConversion@channel 003B                 __end_of_SYSTEM_Initialize 0D93  
                                 ??_putch 003C                                __pbssBANK0 004D  
                    __end_of_EUSART_Write 0D79                              _T2AINPPSbits 1E9C  
                              __pmaintext 002C                                   ?___ftge 003B  
                         __CFG_PPS1WAY$ON 0000                                ??_TMR2_ISR 007E  
                 __end_of_ADCC_Initialize 0DDD                                __pintentry 0004  
                                 _ADFLTRH 0115                                   _ADFLTRL 0114  
                                 _ADPREVH 008F                                   _ADPREVL 008E  
                               ?___ftpack 003B                                   _ADSTPTH 0113  
                                 _ADSTPTL 0112                                   ?_printf 0049  
                               ?___lwtoft 0043                                   _SP1BRGH 011C  
                                 _SP1BRGL 011B                                   _OSCCON1 088D  
                                 _OSCCON3 088F                                ??i1_printf 0024  
                                 _OSCTUNE 0892                                   _PPSLOCK 1E8F  
                            ??_TMR2_Start 003B                                   i1_putch 07FB  
              ??_TMR2_SetInterruptHandler 003D                      __CFG_SCANE$available 0000  
                         __size_of___ftge 003C                              ??i1___ftpack 0075  
                                 ___ftadd 0167                                   ___ftdiv 0522  
                                 ___ftmul 0376                                   ___fttol 0747  
                                 ___lwdiv 0E3D                                   ___lwmod 07CE  
                      __end_of_TMR2_Start 0D41                                ??___ftpack 0040  
                                 __ptext1 0457                                   __ptext2 0D47  
                                 __ptext3 0D6F                                   __ptext4 07CE  
                                 __ptext5 0E3D                                   __ptext6 0D93  
                                 __ptext7 0376                                   __ptext8 0EAD  
                                 __ptext9 0522                           __size_of_printf 00CB  
                              ??___lwtoft 0046                                   _dpowers 102D  
                       i1___lwdiv@divisor 0070                     _OSCILLATOR_Initialize 0D66  
                               _T2CONbits 028E                   __size_ofi1_EUSART_Write 0008  
                       i1___lwdiv@counter 0077                  ??_PIN_MANAGER_Initialize 003B  
                               _T2HLTbits 028F                __size_of_SYSTEM_Initialize 000F  
                                 main@sut 00B2                      end_of_initialization 0028  
                               _T2RSTbits 0291                        __end_ofi1___ftpack 0F9B  
                       _EUSART_Initialize 0D79                        ?_EUSART_Initialize 0070  
                                 printf@c 00A9                                   printf@f 0049  
                        ?_ADCC_Initialize 0070                     __CFG_WDTCPS$WDTCPS_31 0000  
                     ??_EUSART_Initialize 003B                                 _PORTAbits 000C  
                               _PORTCbits 000E                         __size_of_ADCC_ISR 0003  
                   __size_of_EUSART_Write 000A                                 i1___ftadd 0281  
                               i1___ftdiv 069F                                 i1___lwdiv 0E09  
                               i1___lwmod 0DDD                          __CFG_FEXTOSC$OFF 0000  
                               _RXPPSbits 1ECB                 __end_of_EUSART_Initialize 0D84  
                             ___ftdiv@exp 00A4                              i1printf@flag 0029  
                            i1printf@prec 002A                               ___ftmul@exp 00A0  
            _TMR2_DefaultInterruptHandler 0000                            __end_of___ftge 0EE9  
                            _EUSART_Write 0D6F                         __size_of_TMR2_ISR 004E  
                       i1___lwmod@divisor 0078                    ?_OSCILLATOR_Initialize 0070  
                       i1___lwmod@counter 007D         __size_of_ADCC_GetConversionResult 0009  
               ?_ADCC_GetConversionResult 003B                            __end_of_printf 0522  
                     start_initialization 0022                                 i1printf@c 002D  
                               i1printf@f 0020           __size_of_PIN_MANAGER_Initialize 003B  
                              ?i1___ftadd 0078                                ?i1___ftdiv 0078  
                              ?i1___lwdiv 0070                                ?i1___lwmod 0078  
                       __size_ofi1_printf 00B7             __size_of_ADCC_StartConversion 0008  
                             putch@txData 003C                          __CFG_LPBOREN$OFF 0000  
                                ??___ftge 0041                                  ??_printf 00A0  
                          i1_EUSART_Write 0D4D                         __size_of___ftpack 0065  
                               ___latbits 0004                         __size_of___lwtoft 0015  
                           __pcstackBANK0 0020                             __pcstackBANK1 00A0  
                __size_of_TMR2_Initialize 0018                                  ?i1_putch 0070  
              __size_of_EUSART_Initialize 000B                                 __pnvBANK0 0052  
                        ___lwdiv@dividend 003D                    _PIN_MANAGER_Initialize 0E72  
                                ?___ftadd 0043                                  ?___ftdiv 0043  
                                ?___ftmul 0043                                  ?___fttol 002A  
                                ?___lwdiv 003B                                  ?___lwmod 0043  
                           TMR2_ISR@ertek 0038                    __end_ofi1_EUSART_Write 0D55  
            ??_INTERRUPT_InterruptManager 003A                                  _ADCC_ISR 0D3B  
                                _BAUD1CON 011F                               ??i1___ftadd 0020  
                             ??i1___ftdiv 0020                          ___lwdiv@quotient 0041  
                             ??i1___lwdiv 0074                               ??i1___lwmod 007C  
                                _T2CLKCON 0290                      i1EUSART_Write@txData 0070  
                          __size_of_putch 0006                                  _LATCbits 0018  
                                _PIE1bits 0717                                  _PIE4bits 071A  
     __size_of_INTERRUPT_InterruptManager 001C                                  _PIR1bits 070D  
                                _PIR3bits 070F                                  _PIR4bits 0710  
                                _TMR2_ISR 0EE9                           ?i1_EUSART_Write 0070  
                              _ADCON0bits 0093                                _ADCON1bits 0094  
                              _ADCON2bits 0095                                _ADCON3bits 0096  
                              printf@flag 00A5                                printf@prec 00A6  
       __size_of_TMR2_SetInterruptHandler 0006                 ?_TMR2_SetInterruptHandler 003B  
                                i1_printf 05E8                         ??_TMR2_Initialize 003D  
                        __size_ofi1_putch 0005                                _ADSTATbits 0097  
        __end_of_ADCC_GetConversionResult 0D66                   ??_OSCILLATOR_Initialize 003B  
                        __size_of___ftadd 011A                          __size_of___ftdiv 00C6  
                        __size_of___ftmul 00E1                          __size_of___fttol 0087  
                        __size_of___lwdiv 0035                          __size_of___lwmod 002D  
                                ___ftpack 0F9B                                  ___lwtoft 0D93  
                __size_of_ADCC_Initialize 001D                           ___lwdiv@divisor 003B  
                         ___lwdiv@counter 0040                                  __ptext10 0167  
                                __ptext11 0F9B                                  __ptext20 0D55  
                                __ptext12 0D84                                  __ptext21 0D5D  
                                __ptext13 0DA8                                  __ptext30 0281  
                                __ptext14 0D3E                                  __ptext31 0F37  
                                __ptext23 0EE9                                  __ptext15 0D41  
                                __ptext32 0747                                  __ptext24 05E8  
                                __ptext16 0E72                                  __ptext33 0D3B  
                                __ptext25 07FB                                  __ptext17 0D66  
                                __ptext26 0D4D                                  __ptext18 0D79  
                                __ptext27 0DDD                                  __ptext19 0DC0  
                                __ptext28 0E09                                  __ptext29 069F  
                      i1___lwdiv@dividend 0072                             __size_of_main 013B  
                    __CFG_WDTCWS$WDTCWS_7 0000                                _RC1STAbits 011D  
               _ADCC_ADI_InterruptHandler 004D              __end_of_ADCC_StartConversion 0D5D  
                                int$flags 007E        __end_of_INTERRUPT_InterruptManager 0020  
              _INTERRUPT_InterruptManager 0004                                 printf@val 00A7  
                                main@kezd 00AF                                  main@tart 00AC  
             PIN_MANAGER_Initialize@state 003B                        i1___lwdiv@quotient 0075  
                              _INTCONbits 000B                                  intlevel1 0000  
                        ___lwmod@dividend 0045                   ?_PIN_MANAGER_Initialize 0070  
                       __CFG_CLKOUTEN$OFF 0000                               _PPSLOCKbits 1E8F  
                                printf@ap 00A4                  _ADCC_GetConversionResult 0D5D  
                           __pstringtext1 102D                             __pstringtext2 1000  
                           __pstringtext3 1017                             __pstringtext4 0000  
                         ___lwmod@divisor 0043                           ___lwmod@counter 0048  
                              _TMR2_Start 0D3E                        EUSART_Write@txData 003B  
          __end_of_PIN_MANAGER_Initialize 0EAD                         ??_ADCC_Initialize 003B  
                   _TMR2_InterruptHandler 0052  
